LX51 LINKER/LOCATER V4.41                                                               05/12/2022  17:30:48  PAGE 1


LX51 LINKER/LOCATER V4.41, INVOKED BY:
D:\KEIL\KEIL_4\C51\BIN\LX51.EXE .\Out_File\common.obj, .\Out_File\board.obj, .\Out_File\zf_spi.obj, .\Out_File\zf_iic.ob
>> j, .\Out_File\zf_uart.obj, .\Out_File\zf_adc.obj, .\Out_File\zf_tim.obj, .\Out_File\zf_pwm.obj, .\Out_File\zf_exti.ob
>> j, .\Out_File\zf_gpio.obj, .\Out_File\zf_eeprom.obj, .\Out_File\zf_delay.obj, .\Out_File\zf_nvic.obj, .\Out_File\zf_m
>> du16.obj, .\Out_File\SEEKFREE_18TFT.obj, .\Out_File\SEEKFREE_FONT.obj, .\Out_File\SEEKFREE_ICM20602.obj, .\Out_File\S
>> EEKFREE_IIC.obj, .\Out_File\SEEKFREE_TSL1401.obj, .\Out_File\SEEKFREE_IPS114_SPI.obj, .\Out_File\SEEKFREE_MPU6050.obj
>> , .\Out_File\SEEKFREE_OLED.obj, .\Out_File\SEEKFREE_ABSOLUTE_ENCODER.obj, .\Out_File\SEEKFREE_WIRELESS.obj, .\Out_Fil
>> e\SEEKFREE_VIRSCO.obj, .\Out_File\SEEKFREE_PRINTF.obj, .\Out_File\SEEKFREE_WIRELESS_CH573.obj, .\Out_File\SEEKFREE_BL
>> UETOOTH_CH9141.obj, .\Out_File\isr.obj, .\Out_File\main.obj TO .\Out_File\SEEKFREE PRINT (.\Out_File\SEEKFREE.map) RE
>> MOVEUNUSED


CPU MODE:     8051 MODE
MEMORY MODEL: LARGE WITH FLOATING POINT ARITHMETIC


INPUT MODULES INCLUDED:
  .\Out_File\common.obj (COMMON)
         COMMENT TYPE 0: C51 V9.00
  .\Out_File\board.obj (BOARD)
         COMMENT TYPE 0: C51 V9.00
  .\Out_File\zf_spi.obj (ZF_SPI)
         COMMENT TYPE 0: C51 V9.00
  .\Out_File\zf_iic.obj (ZF_IIC)
         COMMENT TYPE 0: C51 V9.00
  .\Out_File\zf_uart.obj (ZF_UART)
         COMMENT TYPE 0: C51 V9.00
  .\Out_File\zf_adc.obj (ZF_ADC)
         COMMENT TYPE 0: C51 V9.00
  .\Out_File\zf_tim.obj (ZF_TIM)
         COMMENT TYPE 0: C51 V9.00
  .\Out_File\zf_pwm.obj (ZF_PWM)
         COMMENT TYPE 0: C51 V9.00
  .\Out_File\zf_exti.obj (ZF_EXTI)
         COMMENT TYPE 0: C51 V9.00
  .\Out_File\zf_gpio.obj (ZF_GPIO)
         COMMENT TYPE 0: C51 V9.00
  .\Out_File\zf_eeprom.obj (ZF_EEPROM)
         COMMENT TYPE 0: C51 V9.00
  .\Out_File\zf_delay.obj (ZF_DELAY)
         COMMENT TYPE 0: C51 V9.00
  .\Out_File\zf_nvic.obj (ZF_NVIC)
         COMMENT TYPE 0: C51 V9.00
  .\Out_File\zf_mdu16.obj (ZF_MDU16)
         COMMENT TYPE 0: C51 V9.00
  .\Out_File\SEEKFREE_18TFT.obj (SEEKFREE_18TFT)
         COMMENT TYPE 0: C51 V9.00
  .\Out_File\SEEKFREE_FONT.obj (SEEKFREE_FONT)
         COMMENT TYPE 0: C51 V9.00
  .\Out_File\SEEKFREE_ICM20602.obj (SEEKFREE_ICM20602)
         COMMENT TYPE 0: C51 V9.00
  .\Out_File\SEEKFREE_IIC.obj (SEEKFREE_IIC)
         COMMENT TYPE 0: C51 V9.00
  .\Out_File\SEEKFREE_TSL1401.obj (SEEKFREE_TSL1401)
         COMMENT TYPE 0: C51 V9.00
  .\Out_File\SEEKFREE_IPS114_SPI.obj (SEEKFREE_IPS114_SPI)
         COMMENT TYPE 0: C51 V9.00
  .\Out_File\SEEKFREE_MPU6050.obj (SEEKFREE_MPU6050)
         COMMENT TYPE 0: C51 V9.00
  .\Out_File\SEEKFREE_OLED.obj (SEEKFREE_OLED)
         COMMENT TYPE 0: C51 V9.00
  .\Out_File\SEEKFREE_ABSOLUTE_ENCODER.obj (SEEKFREE_ABSOLUTE_ENCODER)
         COMMENT TYPE 0: C51 V9.00
  .\Out_File\SEEKFREE_WIRELESS.obj (SEEKFREE_WIRELESS)
         COMMENT TYPE 0: C51 V9.00
  .\Out_File\SEEKFREE_VIRSCO.obj (SEEKFREE_VIRSCO)
LX51 LINKER/LOCATER V4.41                                                             05/12/2022  17:30:48  PAGE 2


         COMMENT TYPE 0: C51 V9.00
  .\Out_File\SEEKFREE_PRINTF.obj (SEEKFREE_PRINTF)
         COMMENT TYPE 0: C51 V9.00
  .\Out_File\SEEKFREE_WIRELESS_CH573.obj (SEEKFREE_WIRELESS_CH573)
         COMMENT TYPE 0: C51 V9.00
  .\Out_File\SEEKFREE_BLUETOOTH_CH9141.obj (SEEKFREE_BLUETOOTH_CH9141)
         COMMENT TYPE 0: C51 V9.00
  .\Out_File\isr.obj (ISR)
         COMMENT TYPE 0: C51 V9.00
  .\Out_File\main.obj (MAIN)
         COMMENT TYPE 0: C51 V9.00
  D:\KEIL\KEIL_4\C51\LIB\C51FPL.LIB (?C?FPADD)
         COMMENT TYPE 1: A51 / ASM51 Assembler
  D:\KEIL\KEIL_4\C51\LIB\C51FPL.LIB (?C?FPMUL)
         COMMENT TYPE 1: A51 / ASM51 Assembler
  D:\KEIL\KEIL_4\C51\LIB\C51FPL.LIB (?C?FPDIV)
         COMMENT TYPE 1: A51 / ASM51 Assembler
  D:\KEIL\KEIL_4\C51\LIB\C51FPL.LIB (?C?FPCMP)
         COMMENT TYPE 1: A51 / ASM51 Assembler
  D:\KEIL\KEIL_4\C51\LIB\C51FPL.LIB (?C?FPNEG)
         COMMENT TYPE 1: A51 / ASM51 Assembler
  D:\KEIL\KEIL_4\C51\LIB\C51FPL.LIB (?C?FCAST)
         COMMENT TYPE 1: A51 / ASM51 Assembler
  D:\KEIL\KEIL_4\C51\LIB\C51FPL.LIB (?C?CASTF)
         COMMENT TYPE 1: A51 / ASM51 Assembler
  D:\KEIL\KEIL_4\C51\LIB\C51FPL.LIB (PRINTF)
         COMMENT TYPE 1: A51 / ASM51 Assembler
  D:\KEIL\KEIL_4\C51\LIB\C51FPL.LIB (?C?FPGETOPN)
         COMMENT TYPE 1: A51 / ASM51 Assembler
  D:\KEIL\KEIL_4\C51\LIB\C51FPL.LIB (?C?FPROUND)
         COMMENT TYPE 1: A51 / ASM51 Assembler
  D:\KEIL\KEIL_4\C51\LIB\C51FPL.LIB (?C?FPCONVERT)
         COMMENT TYPE 1: A51 / ASM51 Assembler
  D:\KEIL\KEIL_4\C51\LIB\C51FPL.LIB (?C?FTNPWR)
         COMMENT TYPE 1: A51 / ASM51 Assembler
  D:\KEIL\KEIL_4\C51\LIB\C51L.LIB (?C_STARTUP)
         COMMENT TYPE 1: A51 / ASM51 Assembler
  D:\KEIL\KEIL_4\C51\LIB\C51L.LIB (?C?COPY)
         COMMENT TYPE 1: A51 / ASM51 Assembler
  D:\KEIL\KEIL_4\C51\LIB\C51L.LIB (?C?SCDIV)
         COMMENT TYPE 1: A51 / ASM51 Assembler
  D:\KEIL\KEIL_4\C51\LIB\C51L.LIB (?C?CLDPTR)
         COMMENT TYPE 1: A51 / ASM51 Assembler
  D:\KEIL\KEIL_4\C51\LIB\C51L.LIB (?C?CLDOPTR)
         COMMENT TYPE 1: A51 / ASM51 Assembler
  D:\KEIL\KEIL_4\C51\LIB\C51L.LIB (?C?CSTPTR)
         COMMENT TYPE 1: A51 / ASM51 Assembler
  D:\KEIL\KEIL_4\C51\LIB\C51L.LIB (?C?CSTOPTR)
         COMMENT TYPE 1: A51 / ASM51 Assembler
  D:\KEIL\KEIL_4\C51\LIB\C51L.LIB (?C?IMUL)
         COMMENT TYPE 1: A51 / ASM51 Assembler
  D:\KEIL\KEIL_4\C51\LIB\C51L.LIB (?C?UIDIV)
         COMMENT TYPE 1: A51 / ASM51 Assembler
  D:\KEIL\KEIL_4\C51\LIB\C51L.LIB (?C?SIDIV)
         COMMENT TYPE 1: A51 / ASM51 Assembler
  D:\KEIL\KEIL_4\C51\LIB\C51L.LIB (?C?IILDX)
         COMMENT TYPE 1: A51 / ASM51 Assembler
  D:\KEIL\KEIL_4\C51\LIB\C51L.LIB (?C?ILDIX)
         COMMENT TYPE 1: A51 / ASM51 Assembler
  D:\KEIL\KEIL_4\C51\LIB\C51L.LIB (?C?ILDOPTR)
         COMMENT TYPE 1: A51 / ASM51 Assembler
  D:\KEIL\KEIL_4\C51\LIB\C51L.LIB (?C?LMUL)
         COMMENT TYPE 1: A51 / ASM51 Assembler
  D:\KEIL\KEIL_4\C51\LIB\C51L.LIB (?C?ULDIV)
         COMMENT TYPE 1: A51 / ASM51 Assembler
LX51 LINKER/LOCATER V4.41                                                             05/12/2022  17:30:48  PAGE 3


  D:\KEIL\KEIL_4\C51\LIB\C51L.LIB (?C?SLDIV)
         COMMENT TYPE 1: A51 / ASM51 Assembler
  D:\KEIL\KEIL_4\C51\LIB\C51L.LIB (?C?LNEG)
         COMMENT TYPE 1: A51 / ASM51 Assembler
  D:\KEIL\KEIL_4\C51\LIB\C51L.LIB (?C?SLCMP)
         COMMENT TYPE 1: A51 / ASM51 Assembler
  D:\KEIL\KEIL_4\C51\LIB\C51L.LIB (?C?ULCMP)
         COMMENT TYPE 1: A51 / ASM51 Assembler
  D:\KEIL\KEIL_4\C51\LIB\C51L.LIB (?C?ULSHR)
         COMMENT TYPE 1: A51 / ASM51 Assembler
  D:\KEIL\KEIL_4\C51\LIB\C51L.LIB (?C?LLDPTR)
         COMMENT TYPE 1: A51 / ASM51 Assembler
  D:\KEIL\KEIL_4\C51\LIB\C51L.LIB (?C?LLDIXDATA)
         COMMENT TYPE 1: A51 / ASM51 Assembler
  D:\KEIL\KEIL_4\C51\LIB\C51L.LIB (?C?LSTXDATA)
         COMMENT TYPE 1: A51 / ASM51 Assembler
  D:\KEIL\KEIL_4\C51\LIB\C51L.LIB (?C?LSTKXDATA)
         COMMENT TYPE 1: A51 / ASM51 Assembler
  D:\KEIL\KEIL_4\C51\LIB\C51L.LIB (?C?OFFX256)
         COMMENT TYPE 1: A51 / ASM51 Assembler
  D:\KEIL\KEIL_4\C51\LIB\C51L.LIB (?C?PLDIXDATA)
         COMMENT TYPE 1: A51 / ASM51 Assembler
  D:\KEIL\KEIL_4\C51\LIB\C51L.LIB (?C?PSTXDATA)
         COMMENT TYPE 1: A51 / ASM51 Assembler
  D:\KEIL\KEIL_4\C51\LIB\C51L.LIB (?C?PLDPTR)
         COMMENT TYPE 1: A51 / ASM51 Assembler
  D:\KEIL\KEIL_4\C51\LIB\C51L.LIB (?C?CCASE)
         COMMENT TYPE 1: A51 / ASM51 Assembler
  D:\KEIL\KEIL_4\C51\LIB\C51L.LIB (STRNCMP)
         COMMENT TYPE 1: C51 Compiler
  D:\KEIL\KEIL_4\C51\LIB\C51L.LIB (STRLEN)
         COMMENT TYPE 1: A51 / ASM51 Assembler
  D:\KEIL\KEIL_4\C51\LIB\C51L.LIB (?C_INIT)
         COMMENT TYPE 1: A51 / ASM51 Assembler
  D:\KEIL\KEIL_4\C51\LIB\C51L.LIB (?C?LLDIDATA)
         COMMENT TYPE 1: A51 / ASM51 Assembler
  D:\KEIL\KEIL_4\C51\LIB\C51L.LIB (?C?LLDXDATA)
         COMMENT TYPE 1: A51 / ASM51 Assembler
  D:\KEIL\KEIL_4\C51\LIB\C51L.LIB (?C?LLDPDATA)
         COMMENT TYPE 1: A51 / ASM51 Assembler
  D:\KEIL\KEIL_4\C51\LIB\C51L.LIB (?C?LLDCODE)
         COMMENT TYPE 1: A51 / ASM51 Assembler
  D:\KEIL\KEIL_4\C51\LIB\C51L.LIB (?C?PLDIDATA)
         COMMENT TYPE 1: A51 / ASM51 Assembler
  D:\KEIL\KEIL_4\C51\LIB\C51L.LIB (?C?PLDXDATA)
         COMMENT TYPE 1: A51 / ASM51 Assembler
  D:\KEIL\KEIL_4\C51\LIB\C51L.LIB (?C?PLDPDATA)
         COMMENT TYPE 1: A51 / ASM51 Assembler
  D:\KEIL\KEIL_4\C51\LIB\C51L.LIB (?C?PLDCODE)
         COMMENT TYPE 1: A51 / ASM51 Assembler


ACTIVE MEMORY CLASSES OF MODULE:  .\Out_File\SEEKFREE (COMMON)

BASE        START       END         USED      MEMORY CLASS
==========================================================
C:000000H   C:000000H   C:00FFFFH   001053H   CODE
X:000000H   X:000000H   X:00FFFFH   00023EH   XDATA
C:000000H   C:000000H   C:00FFFFH             CONST
I:000000H   I:000000H   I:00007FH   000008H   DATA
I:000020H.0 I:000020H.0 I:00002FH.7           BIT
I:000000H   I:000000H   I:0000FFH   000001H   IDATA


MEMORY MAP OF MODULE:  .\Out_File\SEEKFREE (COMMON)
LX51 LINKER/LOCATER V4.41                                                             05/12/2022  17:30:48  PAGE 4




START     STOP      LENGTH    ALIGN  RELOC    MEMORY CLASS   SEGMENT NAME
=========================================================================

* * * * * * * * * * *   D A T A   M E M O R Y   * * * * * * * * * * * * *
000000H   000007H   000008H   ---    AT..     DATA           "REG BANK 0"
000008H   000008H   000001H   BYTE   UNIT     IDATA          ?STACK

* * * * * * * * * * *   C O D E   M E M O R Y   * * * * * * * * * * * * *
000000H   000002H   000003H   ---    OFFS..   CODE           ?CO??C_STARTUP?0
000003H   000005H   000003H   BYTE   OFFS..   CODE           ?ISR?00003
000006H   00000AH   000005H   ---    ---      **GAP**
00000BH   00000DH   000003H   BYTE   OFFS..   CODE           ?ISR?0000B
00000EH   000012H   000005H   ---    ---      **GAP**
000013H   000015H   000003H   BYTE   OFFS..   CODE           ?ISR?00013
000016H   00001AH   000005H   ---    ---      **GAP**
00001BH   00001DH   000003H   BYTE   OFFS..   CODE           ?ISR?0001B
00001EH   000022H   000005H   ---    ---      **GAP**
000023H   000025H   000003H   BYTE   OFFS..   CODE           ?ISR?00023
000026H   000042H   00001DH   ---    ---      **GAP**
000043H   000045H   000003H   BYTE   OFFS..   CODE           ?ISR?00043
000046H   000052H   00000DH   ---    ---      **GAP**
000053H   000055H   000003H   BYTE   OFFS..   CODE           ?ISR?00053
000056H   00005AH   000005H   ---    ---      **GAP**
00005BH   00005DH   000003H   BYTE   OFFS..   CODE           ?ISR?0005B
00005EH   000062H   000005H   ---    ---      **GAP**
000063H   000065H   000003H   BYTE   OFFS..   CODE           ?ISR?00063
000066H   000082H   00001DH   ---    ---      **GAP**
000083H   000085H   000003H   BYTE   OFFS..   CODE           ?ISR?00083
000086H   00008AH   000005H   ---    ---      **GAP**
00008BH   00008DH   000003H   BYTE   OFFS..   CODE           ?ISR?0008B
00008EH   000092H   000005H   ---    ---      **GAP**
000093H   000095H   000003H   BYTE   OFFS..   CODE           ?ISR?00093
000096H   00009AH   000005H   ---    ---      **GAP**
00009BH   00009DH   000003H   BYTE   OFFS..   CODE           ?ISR?0009B
00009EH   0000A2H   000005H   ---    ---      **GAP**
0000A3H   0000A5H   000003H   BYTE   OFFS..   CODE           ?ISR?000A3
0000A6H   0007FFH   00075AH   ---    ---      **GAP**
000800H   0012E8H   000AE9H   BYTE   UNIT     CODE           ?C?LIB_CODE
0012E9H   00148FH   0001A7H   BYTE   UNIT     CODE           ?PR?_UART_INIT?ZF_UART
001490H   00151BH   00008CH   BYTE   UNIT     CODE           ?C_C51STARTUP
00151CH   001595H   00007AH   BYTE   UNIT     CODE           ?PR?BOARD_INIT?BOARD
001596H   001607H   000072H   BYTE   UNIT     CODE           ?PR?DELAY_INIT?ZF_DELAY
001608H   001651H   00004AH   BYTE   UNIT     CODE           ?PR?UART1_ISR?ISR
001652H   001695H   000044H   BYTE   UNIT     CODE           ?PR?CCD_COLLECT?SEEKFREE_TSL1401
001696H   0016D9H   000044H   BYTE   UNIT     CODE           ?C?LDIV
0016DAH   001717H   00003EH   BYTE   UNIT     CODE           ?PR?TM4_ISR?ISR
001718H   001748H   000031H   BYTE   UNIT     CODE           ?PR?_ADC_ONCE?ZF_ADC
001749H   00176AH   000022H   BYTE   UNIT     CODE           ?PR?UART2_ISR?ISR
00176BH   00178CH   000022H   BYTE   UNIT     CODE           ?PR?UART3_ISR?ISR
00178DH   0017AEH   000022H   BYTE   UNIT     CODE           ?PR?UART4_ISR?ISR
0017AFH   0017D0H   000022H   BYTE   UNIT     CODE           ?PR?MAIN?MAIN
0017D1H   0017EDH   00001DH   BYTE   UNIT     CODE           ?PR?_DELAY_MS?ZF_DELAY
0017EEH   001807H   00001AH   BYTE   UNIT     CODE           ?C_INITSEG
001808H   00180BH   000004H   BYTE   UNIT     CODE           ?PR?INT2_ISR?ISR
00180CH   00180FH   000004H   BYTE   UNIT     CODE           ?PR?INT3_ISR?ISR
001810H   001813H   000004H   BYTE   UNIT     CODE           ?PR?INT4_ISR?ISR
001814H   001817H   000004H   BYTE   UNIT     CODE           ?PR?TM2_ISR?ISR
001818H   00181BH   000004H   BYTE   UNIT     CODE           ?PR?TM3_ISR?ISR
00181CH   00181EH   000003H   BYTE   UNIT     CODE           ?PR?DISABLEGLOBALIRQ?BOARD
00181FH   001821H   000003H   BYTE   UNIT     CODE           ?PR?ENABLEGLOBALIRQ?BOARD
001822H   001822H   000001H   BYTE   UNIT     CODE           ?PR?INT0_ISR?ISR
001823H   001823H   000001H   BYTE   UNIT     CODE           ?PR?INT1_ISR?ISR
001824H   001824H   000001H   BYTE   UNIT     CODE           ?PR?TM0_ISR?ISR
LX51 LINKER/LOCATER V4.41                                                             05/12/2022  17:30:48  PAGE 5


001825H   001825H   000001H   BYTE   UNIT     CODE           ?PR?TM1_ISR?ISR

* * * * * * * * * * *  X D A T A   M E M O R Y  * * * * * * * * * * * * *
000000H   000100H   000101H   BYTE   UNIT     XDATA          ?XD?SEEKFREE_TSL1401
000101H   0001CDH   0000CDH   BYTE   UNIT     XDATA          ?XD?ZF_UART
0001CEH   000202H   000035H   BYTE   UNIT     XDATA          ?XD?SEEKFREE_BLUETOOTH_CH9141
000203H   00020EH   00000CH   BYTE   UNIT     XDATA          ?XD?SEEKFREE_ICM20602
00020FH   00021AH   00000CH   BYTE   UNIT     XDATA          ?XD?SEEKFREE_MPU6050
00021BH   000224H   00000AH   BYTE   UNIT     XDATA          ?XD?SEEKFREE_VIRSCO
000225H   00022DH   000009H   BYTE   UNIT     XDATA          _XDATA_GROUP_
00022EH   000233H   000006H   BYTE   UNIT     XDATA          ?XD?SEEKFREE_IIC
000234H   000237H   000004H   BYTE   UNIT     XDATA          ?XD?BOARD
000238H   00023BH   000004H   BYTE   UNIT     XDATA          ?XD?ZF_DELAY
00023CH   00023CH   000001H   BYTE   UNIT     XDATA          ?XD?COMMON
00023DH   00023DH   000001H   BYTE   UNIT     XDATA          ?XD?ISR

* * * * * * * * *   R E M O V E D     S E G M E N T S   * * * * * * * *
   *DEL*:           0002C4H   BYTE   UNIT     CODE           ?PR?GET_CLK?BOARD
   *DEL*:           000004H   BYTE   UNIT     XDATA          ?XD?GET_CLK?BOARD
   *DEL*:           000011H   BYTE   UNIT     CODE           ?PR?_PUTCHAR?BOARD
   *DEL*:           000001H   BYTE   UNIT     XDATA          ?XD?_PUTCHAR?BOARD
   *DEL*:           0000B9H   BYTE   UNIT     CODE           ?PR?_SPI_INIT?ZF_SPI
   *DEL*:           000007H   BYTE   UNIT     XDATA          ?XD?_SPI_INIT?ZF_SPI
   *DEL*:           00000DH   BYTE   UNIT     CODE           ?PR?_SPI_MOSI?ZF_SPI
   *DEL*:           000083H   BYTE   UNIT     CODE           ?PR?_SPI_CHANGE_PIN?ZF_SPI
   *DEL*:           000004H   BYTE   UNIT     XDATA          ?XD?_SPI_CHANGE_PIN?ZF_SPI
   *DEL*:           00001BH   BYTE   UNIT     CODE           ?PR?_SPI_CHANGE_MODE?ZF_SPI
   *DEL*:           000013H   BYTE   UNIT     CODE           ?PR?_IIC_DELAY_US?ZF_IIC
   *DEL*:           00003BH   BYTE   UNIT     CODE           ?PR?WAIT?ZF_IIC
   *DEL*:           000002H   BYTE   UNIT     XDATA          ?XD?WAIT?ZF_IIC
   *DEL*:           000014H   BYTE   UNIT     CODE           ?PR?START?ZF_IIC
   *DEL*:           00000FH   BYTE   UNIT     CODE           ?PR?_SEND_DATA?ZF_IIC
   *DEL*:           00000AH   BYTE   UNIT     CODE           ?PR?RECV_ACK?ZF_IIC
   *DEL*:           00000FH   BYTE   UNIT     CODE           ?PR?RECV_DATA?ZF_IIC
   *DEL*:           00001EH   BYTE   UNIT     CODE           ?PR?SEND_ACK?ZF_IIC
   *DEL*:           00000FH   BYTE   UNIT     CODE           ?PR?SEND_NAK?ZF_IIC
   *DEL*:           00000AH   BYTE   UNIT     CODE           ?PR?STOP?ZF_IIC
   *DEL*:           000047H   BYTE   UNIT     CODE           ?PR?_IIC_INIT?ZF_IIC
   *DEL*:           000007H   BYTE   UNIT     XDATA          ?XD?_IIC_INIT?ZF_IIC
   *DEL*:           000058H   BYTE   UNIT     CODE           ?PR?_IIC_WRITE_REG?ZF_IIC
   *DEL*:           000001H   BYTE   UNIT     XDATA          ?XD?_IIC_WRITE_REG?ZF_IIC
   *DEL*:           00006DH   BYTE   UNIT     CODE           ?PR?_IIC_READ_REG?ZF_IIC
   *DEL*:           000005H   BYTE   UNIT     XDATA          ?XD?_IIC_READ_REG?ZF_IIC
   *DEL*:           00008AH   BYTE   UNIT     CODE           ?PR?_IIC_READ_REG_BYTES?ZF_IIC
   *DEL*:           000006H   BYTE   UNIT     XDATA          ?XD?_IIC_READ_REG_BYTES?ZF_IIC
   *DEL*:           000025H   BYTE   UNIT     CODE           ?PR?_IIC_CHANGE_PIN?ZF_IIC
   *DEL*:           00005BH   BYTE   UNIT     CODE           ?PR?_UART_PUTCHAR?ZF_UART
   *DEL*:           000028H   BYTE   UNIT     CODE           ?PR?_UART_PUTBUFF?ZF_UART
   *DEL*:           000006H   BYTE   UNIT     XDATA          ?XD?_UART_PUTBUFF?ZF_UART
   *DEL*:           000028H   BYTE   UNIT     CODE           ?PR?_UART_PUTSTR?ZF_UART
   *DEL*:           000003H   BYTE   UNIT     XDATA          ?XD?_UART_PUTSTR?ZF_UART
   *DEL*:           00004DH   BYTE   UNIT     CODE           ?PR?_ADC_INIT?ZF_ADC
   *DEL*:           000042H   BYTE   UNIT     CODE           ?PR?_CTIMER_COUNT_INIT?ZF_TIM
   *DEL*:           000046H   BYTE   UNIT     CODE           ?PR?_CTIMER_COUNT_READ?ZF_TIM
   *DEL*:           000049H   BYTE   UNIT     CODE           ?PR?_CTIMER_COUNT_CLEAN?ZF_TIM
   *DEL*:           000088H   BYTE   UNIT     CODE           ?PR?_PIT_TIMER_MS?ZF_TIM
   *DEL*:           000001H   BYTE   UNIT     XDATA          ?XD?_PIT_TIMER_MS?ZF_TIM
   *DEL*:           000191H   BYTE   UNIT     CODE           ?PR?_PWM_SET_GPIO?ZF_PWM
   *DEL*:           000299H   BYTE   UNIT     CODE           ?PR?_PWM_INIT?ZF_PWM
   *DEL*:           00000BH   BYTE   UNIT     XDATA          ?XD?_PWM_INIT?ZF_PWM
   *DEL*:           0000D3H   BYTE   UNIT     CODE           ?PR?_PWM_DUTY?ZF_PWM
   *DEL*:           000005H   BYTE   UNIT     XDATA          ?XD?_PWM_DUTY?ZF_PWM
   *DEL*:           000140H   BYTE   UNIT     CODE           ?PR?_PWM_FREQ?ZF_PWM
   *DEL*:           000010H   BYTE   UNIT     XDATA          ?XD?_PWM_FREQ?ZF_PWM
   *DEL*:           00002BH   BYTE   UNIT     CODE           ?PR?_EXIT_INIT?ZF_EXTI
LX51 LINKER/LOCATER V4.41                                                             05/12/2022  17:30:48  PAGE 6


   *DEL*:           000058H   BYTE   UNIT     CODE           ?PR?_GPIO_PULL_SET?ZF_GPIO
   *DEL*:           000384H   BYTE   UNIT     CODE           ?PR?_GPIO_MODE?ZF_GPIO
   *DEL*:           000006H   BYTE   UNIT     CODE           ?PR?IAP_INIT?ZF_EEPROM
   *DEL*:           000004H   BYTE   UNIT     CODE           ?PR?IAP_IDLE?ZF_EEPROM
   *DEL*:           00000AH   BYTE   UNIT     CODE           ?PR?IAP_GET_CMD_STATE?ZF_EEPROM
   *DEL*:           00001EH   BYTE   UNIT     CODE           ?PR?IAP_SET_TPS?ZF_EEPROM
   *DEL*:           000049H   BYTE   UNIT     CODE           ?PR?_IAP_READ_BYTES?ZF_EEPROM
   *DEL*:           000007H   BYTE   UNIT     XDATA          ?XD?_IAP_READ_BYTES?ZF_EEPROM
   *DEL*:           000049H   BYTE   UNIT     CODE           ?PR?_IAP_WRITE_BYTES?ZF_EEPROM
   *DEL*:           000007H   BYTE   UNIT     XDATA          ?XD?_IAP_WRITE_BYTES?ZF_EEPROM
   *DEL*:           000010H   BYTE   UNIT     CODE           ?PR?_IAP_ERASE_PAGE?ZF_EEPROM
   *DEL*:           0000E5H   BYTE   UNIT     CODE           ?PR?_EXTERN_IAP_WRITE_BYTES?ZF_EEPROM
   *DEL*:           000209H   BYTE   UNIT     XDATA          ?XD?_EXTERN_IAP_WRITE_BYTES?ZF_EEPROM
   *DEL*:           00006CH   BYTE   UNIT     CODE           ?PR?_DELAY_US?ZF_DELAY
   *DEL*:           000004H   BYTE   UNIT     XDATA          ?XD?_DELAY_US?ZF_DELAY
   *DEL*:           000083H   BYTE   UNIT     CODE           ?PR?_NVIC_SETPRIORITY?ZF_NVIC
   *DEL*:           000025H   BYTE   UNIT     CODE           ?PR?_LCD_WRITEINDEX_SIMSPI?SEEKFREE_18TFT
   *DEL*:           000034H   BYTE   UNIT     CODE           ?PR?_LCD_WRITEDATA_SIMSPI?SEEKFREE_18TFT
   *DEL*:           000028H   BYTE   UNIT     CODE           ?PR?_LCD_WRITEDATA_16BIT_SIMSPI?SEEKFREE_18TFT
   *DEL*:           000055H   BYTE   UNIT     CODE           ?PR?_LCD_SET_REGION_SIMSPI?SEEKFREE_18TFT
   *DEL*:           000008H   BYTE   UNIT     XDATA          ?XD?_LCD_SET_REGION_SIMSPI?SEEKFREE_18TFT
   *DEL*:           000037H   BYTE   UNIT     CODE           ?PR?_LCD_CLEAR_SIMSPI?SEEKFREE_18TFT
   *DEL*:           000002H   BYTE   UNIT     XDATA          ?XD?_LCD_CLEAR_SIMSPI?SEEKFREE_18TFT
   *DEL*:           0001C0H   BYTE   UNIT     CODE           ?PR?LCD_INIT_SIMSPI?SEEKFREE_18TFT
   *DEL*:           000042H   BYTE   UNIT     CODE           ?PR?_LCD_DRAWPOINT_SIMSPI?SEEKFREE_18TFT
   *DEL*:           000006H   BYTE   UNIT     XDATA          ?XD?_LCD_DRAWPOINT_SIMSPI?SEEKFREE_18TFT
   *DEL*:           0000D4H   BYTE   UNIT     CODE           ?PR?_LCD_SHOWCHAR_SIMSPI?SEEKFREE_18TFT
   *DEL*:           000006H   BYTE   UNIT     XDATA          ?XD?_LCD_SHOWCHAR_SIMSPI?SEEKFREE_18TFT
   *DEL*:           000076H   BYTE   UNIT     CODE           ?PR?_LCD_SHOWSTR_SIMSPI?SEEKFREE_18TFT
   *DEL*:           000009H   BYTE   UNIT     XDATA          ?XD?_LCD_SHOWSTR_SIMSPI?SEEKFREE_18TFT
   *DEL*:           0000BCH   BYTE   UNIT     CODE           ?PR?_LCD_SHOWINT8_SIMSPI?SEEKFREE_18TFT
   *DEL*:           000009H   BYTE   UNIT     XDATA          ?XD?_LCD_SHOWINT8_SIMSPI?SEEKFREE_18TFT
   *DEL*:           000077H   BYTE   UNIT     CODE           ?PR?_LCD_SHOWUINT8_SIMSPI?SEEKFREE_18TFT
   *DEL*:           000008H   BYTE   UNIT     XDATA          ?XD?_LCD_SHOWUINT8_SIMSPI?SEEKFREE_18TFT
   *DEL*:           000136H   BYTE   UNIT     CODE           ?PR?_LCD_SHOWINT16_SIMSPI?SEEKFREE_18TFT
   *DEL*:           00000CH   BYTE   UNIT     XDATA          ?XD?_LCD_SHOWINT16_SIMSPI?SEEKFREE_18TFT
   *DEL*:           0000B5H   BYTE   UNIT     CODE           ?PR?_LCD_SHOWUINT16_SIMSPI?SEEKFREE_18TFT
   *DEL*:           00000AH   BYTE   UNIT     XDATA          ?XD?_LCD_SHOWUINT16_SIMSPI?SEEKFREE_18TFT
   *DEL*:           0000EAH   BYTE   UNIT     CODE           ?PR?_LCD_SHOWINT32_SIMSPI?SEEKFREE_18TFT
   *DEL*:           00002CH   BYTE   UNIT     XDATA          ?XD?_LCD_SHOWINT32_SIMSPI?SEEKFREE_18TFT
   *DEL*:           000166H   BYTE   UNIT     CODE           ?PR?_LCD_SHOWFLOAT_SIMSPI?SEEKFREE_18TFT
   *DEL*:           00002FH   BYTE   UNIT     XDATA          ?XD?_LCD_SHOWFLOAT_SIMSPI?SEEKFREE_18TFT
   *DEL*:           00000AH   BYTE   UNIT     CODE           ?PR?_LCD_WRITEINDEX?SEEKFREE_18TFT
   *DEL*:           00000AH   BYTE   UNIT     CODE           ?PR?_LCD_WRITEDATA?SEEKFREE_18TFT
   *DEL*:           000023H   BYTE   UNIT     CODE           ?PR?_LCD_WRITEDATA_16BIT?SEEKFREE_18TFT
   *DEL*:           000002H   BYTE   UNIT     XDATA          ?XD?_LCD_WRITEDATA_16BIT?SEEKFREE_18TFT
   *DEL*:           000061H   BYTE   UNIT     CODE           ?PR?_LCD_SET_REGION?SEEKFREE_18TFT
   *DEL*:           000008H   BYTE   UNIT     XDATA          ?XD?_LCD_SET_REGION?SEEKFREE_18TFT
   *DEL*:           00004BH   BYTE   UNIT     CODE           ?PR?_LCD_CLEAR?SEEKFREE_18TFT
   *DEL*:           000004H   BYTE   UNIT     XDATA          ?XD?_LCD_CLEAR?SEEKFREE_18TFT
   *DEL*:           00020FH   BYTE   UNIT     CODE           ?PR?LCD_INIT?SEEKFREE_18TFT
   *DEL*:           000042H   BYTE   UNIT     CODE           ?PR?_LCD_DRAWPOINT?SEEKFREE_18TFT
   *DEL*:           000006H   BYTE   UNIT     XDATA          ?XD?_LCD_DRAWPOINT?SEEKFREE_18TFT
   *DEL*:           0000E7H   BYTE   UNIT     CODE           ?PR?_LCD_SHOWCHAR?SEEKFREE_18TFT
   *DEL*:           000008H   BYTE   UNIT     XDATA          ?XD?_LCD_SHOWCHAR?SEEKFREE_18TFT
   *DEL*:           000076H   BYTE   UNIT     CODE           ?PR?_LCD_SHOWSTR?SEEKFREE_18TFT
   *DEL*:           000009H   BYTE   UNIT     XDATA          ?XD?_LCD_SHOWSTR?SEEKFREE_18TFT
   *DEL*:           0000BCH   BYTE   UNIT     CODE           ?PR?_LCD_SHOWINT8?SEEKFREE_18TFT
   *DEL*:           000009H   BYTE   UNIT     XDATA          ?XD?_LCD_SHOWINT8?SEEKFREE_18TFT
   *DEL*:           000077H   BYTE   UNIT     CODE           ?PR?_LCD_SHOWUINT8?SEEKFREE_18TFT
   *DEL*:           000008H   BYTE   UNIT     XDATA          ?XD?_LCD_SHOWUINT8?SEEKFREE_18TFT
   *DEL*:           000136H   BYTE   UNIT     CODE           ?PR?_LCD_SHOWINT16?SEEKFREE_18TFT
   *DEL*:           00000CH   BYTE   UNIT     XDATA          ?XD?_LCD_SHOWINT16?SEEKFREE_18TFT
   *DEL*:           0000B5H   BYTE   UNIT     CODE           ?PR?_LCD_SHOWUINT16?SEEKFREE_18TFT
   *DEL*:           00000AH   BYTE   UNIT     XDATA          ?XD?_LCD_SHOWUINT16?SEEKFREE_18TFT
LX51 LINKER/LOCATER V4.41                                                             05/12/2022  17:30:48  PAGE 7


   *DEL*:           0000EAH   BYTE   UNIT     CODE           ?PR?_LCD_SHOWINT32?SEEKFREE_18TFT
   *DEL*:           00002CH   BYTE   UNIT     XDATA          ?XD?_LCD_SHOWINT32?SEEKFREE_18TFT
   *DEL*:           000166H   BYTE   UNIT     CODE           ?PR?_LCD_SHOWFLOAT?SEEKFREE_18TFT
   *DEL*:           00002FH   BYTE   UNIT     XDATA          ?XD?_LCD_SHOWFLOAT?SEEKFREE_18TFT
   *DEL*:           00011BH   BYTE   UNIT     CODE           ?PR?_SHOWIMAGE?SEEKFREE_18TFT
   *DEL*:           00000BH   BYTE   UNIT     XDATA          ?XD?_SHOWIMAGE?SEEKFREE_18TFT
   *DEL*:           000006H   BYTE   UNIT     CODE           ?CO?SEEKFREE_18TFT
   *DEL*:           000E08H   BYTE   UNIT     CONST          ?CO?SEEKFREE_FONT
   *DEL*:           000025H   BYTE   UNIT     CODE           ?PR?ICM20602_SELF1_CHECK?SEEKFREE_ICM20602
   *DEL*:           000001H   BYTE   UNIT     XDATA          ?XD?ICM20602_SELF1_CHECK?SEEKFREE_ICM20602
   *DEL*:           000066H   BYTE   UNIT     CODE           ?PR?ICM20602_INIT_SIMIIC?SEEKFREE_ICM20602
   *DEL*:           00004DH   BYTE   UNIT     CODE           ?PR?GET_ICM20602_ACCDATA_SIMIIC?SEEKFREE_ICM20602
   *DEL*:           000006H   BYTE   UNIT     XDATA          ?XD?GET_ICM20602_ACCDATA_SIMIIC?SEEKFREE_ICM20602
   *DEL*:           00004DH   BYTE   UNIT     CODE           ?PR?GET_ICM20602_GYRO_SIMIIC?SEEKFREE_ICM20602
   *DEL*:           000006H   BYTE   UNIT     XDATA          ?XD?GET_ICM20602_GYRO_SIMIIC?SEEKFREE_ICM20602
   *DEL*:           000020H   BYTE   UNIT     CODE           ?PR?_ICM_SIMSPI_WR_BYTE?SEEKFREE_ICM20602
   *DEL*:           00000DH   BYTE   UNIT     CODE           ?PR?_ICM_SIMSPI_W_REG_BYTE?SEEKFREE_ICM20602
   *DEL*:           00000FH   BYTE   UNIT     CODE           ?PR?_ICM_SIMSPI_R_REG_BYTE?SEEKFREE_ICM20602
   *DEL*:           000040H   BYTE   UNIT     CODE           ?PR?_ICM_SIMSPI_R_REG_BYTES?SEEKFREE_ICM20602
   *DEL*:           000005H   BYTE   UNIT     XDATA          ?XD?_ICM_SIMSPI_R_REG_BYTES?SEEKFREE_ICM20602
   *DEL*:           000013H   BYTE   UNIT     CODE           ?PR?ICM20602_SELF4_CHECK?SEEKFREE_ICM20602
   *DEL*:           000001H   BYTE   UNIT     XDATA          ?XD?ICM20602_SELF4_CHECK?SEEKFREE_ICM20602
   *DEL*:           000052H   BYTE   UNIT     CODE           ?PR?ICM20602_INIT_SIMSPI?SEEKFREE_ICM20602
   *DEL*:           000001H   BYTE   UNIT     XDATA          ?XD?ICM20602_INIT_SIMSPI?SEEKFREE_ICM20602
   *DEL*:           000048H   BYTE   UNIT     CODE           ?PR?GET_ICM20602_ACCDATA_SIMSPI?SEEKFREE_ICM20602
   *DEL*:           000006H   BYTE   UNIT     XDATA          ?XD?GET_ICM20602_ACCDATA_SIMSPI?SEEKFREE_ICM20602
   *DEL*:           000048H   BYTE   UNIT     CODE           ?PR?GET_ICM20602_GYRO_SIMSPI?SEEKFREE_ICM20602
   *DEL*:           000006H   BYTE   UNIT     XDATA          ?XD?GET_ICM20602_GYRO_SIMSPI?SEEKFREE_ICM20602
   *DEL*:           000012H   BYTE   UNIT     CODE           ?PR?_ICM_SPI_WR_BYTE?SEEKFREE_ICM20602
   *DEL*:           000015H   BYTE   UNIT     CODE           ?PR?_ICM_SPI_W_REG_BYTE?SEEKFREE_ICM20602
   *DEL*:           000001H   BYTE   UNIT     XDATA          ?XD?_ICM_SPI_W_REG_BYTE?SEEKFREE_ICM20602
   *DEL*:           00001DH   BYTE   UNIT     CODE           ?PR?_ICM_SPI_R_REG_BYTE?SEEKFREE_ICM20602
   *DEL*:           000003H   BYTE   UNIT     XDATA          ?XD?_ICM_SPI_R_REG_BYTE?SEEKFREE_ICM20602
   *DEL*:           000052H   BYTE   UNIT     CODE           ?PR?_ICM_SPI_R_REG_BYTES?SEEKFREE_ICM20602
   *DEL*:           000007H   BYTE   UNIT     XDATA          ?XD?_ICM_SPI_R_REG_BYTES?SEEKFREE_ICM20602
   *DEL*:           000022H   BYTE   UNIT     CODE           ?PR?ICM20602_SELF3_CHECK?SEEKFREE_ICM20602
   *DEL*:           000001H   BYTE   UNIT     XDATA          ?XD?ICM20602_SELF3_CHECK?SEEKFREE_ICM20602
   *DEL*:           000075H   BYTE   UNIT     CODE           ?PR?ICM20602_INIT_SPI?SEEKFREE_ICM20602
   *DEL*:           000001H   BYTE   UNIT     XDATA          ?XD?ICM20602_INIT_SPI?SEEKFREE_ICM20602
   *DEL*:           000048H   BYTE   UNIT     CODE           ?PR?GET_ICM20602_ACCDATA_SPI?SEEKFREE_ICM20602
   *DEL*:           000006H   BYTE   UNIT     XDATA          ?XD?GET_ICM20602_ACCDATA_SPI?SEEKFREE_ICM20602
   *DEL*:           000048H   BYTE   UNIT     CODE           ?PR?GET_ICM20602_GYRO_SPI?SEEKFREE_ICM20602
   *DEL*:           000006H   BYTE   UNIT     XDATA          ?XD?GET_ICM20602_GYRO_SPI?SEEKFREE_ICM20602
   *DEL*:           000001H   BYTE   UNIT     CODE           ?PR?SIMIIC_INIT?SEEKFREE_IIC
   *DEL*:           000015H   BYTE   UNIT     CODE           ?PR?SIMIIC_DELAY?SEEKFREE_IIC
   *DEL*:           00000FH   BYTE   UNIT     CODE           ?PR?SIMIIC_START?SEEKFREE_IIC
   *DEL*:           00000AH   BYTE   UNIT     CODE           ?PR?SIMIIC_STOP?SEEKFREE_IIC
   *DEL*:           00001AH   BYTE   UNIT     CODE           ?PR?_SIMIIC_SENDACK?SEEKFREE_IIC
   *DEL*:           000016H   BYTE   UNIT     CODE           ?PR?SCCB_WAITACK?SEEKFREE_IIC
   *DEL*:           000026H   BYTE   UNIT     CODE           ?PR?_SEND_CH?SEEKFREE_IIC
   *DEL*:           00002DH   BYTE   UNIT     CODE           ?PR?_READ_CH?SEEKFREE_IIC
   *DEL*:           00001CH   BYTE   UNIT     CODE           ?PR?_SIMIIC_WRITE_REG?SEEKFREE_IIC
   *DEL*:           000001H   BYTE   UNIT     XDATA          ?XD?_SIMIIC_WRITE_REG?SEEKFREE_IIC
   *DEL*:           00003AH   BYTE   UNIT     CODE           ?PR?_SIMIIC_READ_REG?SEEKFREE_IIC
   *DEL*:           000001H   BYTE   UNIT     XDATA          ?XD?_SIMIIC_READ_REG?SEEKFREE_IIC
   *DEL*:           000078H   BYTE   UNIT     CODE           ?PR?_SIMIIC_READ_REGS?SEEKFREE_IIC
   *DEL*:           000007H   BYTE   UNIT     XDATA          ?XD?_SIMIIC_READ_REGS?SEEKFREE_IIC
   *DEL*:           000010H   BYTE   UNIT     CODE           ?PR?CCD_INIT?SEEKFREE_TSL1401
   *DEL*:           000094H   BYTE   UNIT     CODE           ?PR?_CCD_SEND_DATA?SEEKFREE_TSL1401
   *DEL*:           000005H   BYTE   UNIT     XDATA          ?XD?_CCD_SEND_DATA?SEEKFREE_TSL1401
   *DEL*:           000025H   BYTE   UNIT     CODE           ?PR?_IPS114_WRITEINDEX_SIMSPI?SEEKFREE_IPS114_SPI
   *DEL*:           00002FH   BYTE   UNIT     CODE           ?PR?_IPS114_WRITEDATA_SIMSPI?SEEKFREE_IPS114_SPI
   *DEL*:           00002FH   BYTE   UNIT     CODE           ?PR?_IPS114_WRITEDATAI_16BIT_SIMSPI?SEEKFREE_IPS114_SPI
   *DEL*:           00013CH   BYTE   UNIT     CODE           ?PR?IPS114_INIT_SIMSPI?SEEKFREE_IPS114_SPI
   *DEL*:           000048H   BYTE   UNIT     CODE           ?PR?_IPS114_SET_REGION_SIMSPI?SEEKFREE_IPS114_SPI
LX51 LINKER/LOCATER V4.41                                                             05/12/2022  17:30:48  PAGE 8


   *DEL*:           000008H   BYTE   UNIT     XDATA          ?XD?_IPS114_SET_REGION_SIMSPI?SEEKFREE_IPS114_SPI
   *DEL*:           00005BH   BYTE   UNIT     CODE           ?PR?_IPS114_CLEAR_SIMSPI?SEEKFREE_IPS114_SPI
   *DEL*:           000004H   BYTE   UNIT     XDATA          ?XD?_IPS114_CLEAR_SIMSPI?SEEKFREE_IPS114_SPI
   *DEL*:           000042H   BYTE   UNIT     CODE           ?PR?_IPS114_DRAWPOINT_SIMSPI?SEEKFREE_IPS114_SPI
   *DEL*:           000006H   BYTE   UNIT     XDATA          ?XD?_IPS114_DRAWPOINT_SIMSPI?SEEKFREE_IPS114_SPI
   *DEL*:           0000D4H   BYTE   UNIT     CODE           ?PR?_IPS114_SHOWCHAR_SIMSPI?SEEKFREE_IPS114_SPI
   *DEL*:           000006H   BYTE   UNIT     XDATA          ?XD?_IPS114_SHOWCHAR_SIMSPI?SEEKFREE_IPS114_SPI
   *DEL*:           000076H   BYTE   UNIT     CODE           ?PR?_IPS114_SHOWSTR_SIMSPI?SEEKFREE_IPS114_SPI
   *DEL*:           000009H   BYTE   UNIT     XDATA          ?XD?_IPS114_SHOWSTR_SIMSPI?SEEKFREE_IPS114_SPI
   *DEL*:           0000BCH   BYTE   UNIT     CODE           ?PR?_IPS114_SHOWINT8_SIMSPI?SEEKFREE_IPS114_SPI
   *DEL*:           000009H   BYTE   UNIT     XDATA          ?XD?_IPS114_SHOWINT8_SIMSPI?SEEKFREE_IPS114_SPI
   *DEL*:           000077H   BYTE   UNIT     CODE           ?PR?_IPS114_SHOWUINT8_SIMSPI?SEEKFREE_IPS114_SPI
   *DEL*:           000008H   BYTE   UNIT     XDATA          ?XD?_IPS114_SHOWUINT8_SIMSPI?SEEKFREE_IPS114_SPI
   *DEL*:           000136H   BYTE   UNIT     CODE           ?PR?_IPS114_SHOWINT16_SIMSPI?SEEKFREE_IPS114_SPI
   *DEL*:           00000CH   BYTE   UNIT     XDATA          ?XD?_IPS114_SHOWINT16_SIMSPI?SEEKFREE_IPS114_SPI
   *DEL*:           0000B5H   BYTE   UNIT     CODE           ?PR?_IPS114_SHOWUINT16_SIMSPI?SEEKFREE_IPS114_SPI
   *DEL*:           00000AH   BYTE   UNIT     XDATA          ?XD?_IPS114_SHOWUINT16_SIMSPI?SEEKFREE_IPS114_SPI
   *DEL*:           0000EAH   BYTE   UNIT     CODE           ?PR?_IPS114_SHOWINT32_SIMSPI?SEEKFREE_IPS114_SPI
   *DEL*:           00002CH   BYTE   UNIT     XDATA          ?XD?_IPS114_SHOWINT32_SIMSPI?SEEKFREE_IPS114_SPI
   *DEL*:           000166H   BYTE   UNIT     CODE           ?PR?_IPS114_SHOWFLOAT_SIMSPI?SEEKFREE_IPS114_SPI
   *DEL*:           00002FH   BYTE   UNIT     XDATA          ?XD?_IPS114_SHOWFLOAT_SIMSPI?SEEKFREE_IPS114_SPI
   *DEL*:           00000AH   BYTE   UNIT     CODE           ?PR?_IPS114_WRITEINDEX?SEEKFREE_IPS114_SPI
   *DEL*:           00000AH   BYTE   UNIT     CODE           ?PR?_IPS114_WRITEDATA?SEEKFREE_IPS114_SPI
   *DEL*:           00002AH   BYTE   UNIT     CODE           ?PR?_IPS114_WRITEDATA_16BIT?SEEKFREE_IPS114_SPI
   *DEL*:           000002H   BYTE   UNIT     XDATA          ?XD?_IPS114_WRITEDATA_16BIT?SEEKFREE_IPS114_SPI
   *DEL*:           000166H   BYTE   UNIT     CODE           ?PR?IPS114_INIT?SEEKFREE_IPS114_SPI
   *DEL*:           000051H   BYTE   UNIT     CODE           ?PR?_IPS114_SET_REGION?SEEKFREE_IPS114_SPI
   *DEL*:           000008H   BYTE   UNIT     XDATA          ?XD?_IPS114_SET_REGION?SEEKFREE_IPS114_SPI
   *DEL*:           000071H   BYTE   UNIT     CODE           ?PR?_IPS114_CLEAR?SEEKFREE_IPS114_SPI
   *DEL*:           000006H   BYTE   UNIT     XDATA          ?XD?_IPS114_CLEAR?SEEKFREE_IPS114_SPI
   *DEL*:           000042H   BYTE   UNIT     CODE           ?PR?_IPS114_DRAWPOINT?SEEKFREE_IPS114_SPI
   *DEL*:           000006H   BYTE   UNIT     XDATA          ?XD?_IPS114_DRAWPOINT?SEEKFREE_IPS114_SPI
   *DEL*:           0000E7H   BYTE   UNIT     CODE           ?PR?_IPS114_SHOWCHAR?SEEKFREE_IPS114_SPI
   *DEL*:           000008H   BYTE   UNIT     XDATA          ?XD?_IPS114_SHOWCHAR?SEEKFREE_IPS114_SPI
   *DEL*:           000076H   BYTE   UNIT     CODE           ?PR?_IPS114_SHOWSTR?SEEKFREE_IPS114_SPI
   *DEL*:           000009H   BYTE   UNIT     XDATA          ?XD?_IPS114_SHOWSTR?SEEKFREE_IPS114_SPI
   *DEL*:           0000BCH   BYTE   UNIT     CODE           ?PR?_IPS114_SHOWINT8?SEEKFREE_IPS114_SPI
   *DEL*:           000009H   BYTE   UNIT     XDATA          ?XD?_IPS114_SHOWINT8?SEEKFREE_IPS114_SPI
   *DEL*:           000077H   BYTE   UNIT     CODE           ?PR?_IPS114_SHOWUINT8?SEEKFREE_IPS114_SPI
   *DEL*:           000008H   BYTE   UNIT     XDATA          ?XD?_IPS114_SHOWUINT8?SEEKFREE_IPS114_SPI
   *DEL*:           000136H   BYTE   UNIT     CODE           ?PR?_IPS114_SHOWINT16?SEEKFREE_IPS114_SPI
   *DEL*:           00000CH   BYTE   UNIT     XDATA          ?XD?_IPS114_SHOWINT16?SEEKFREE_IPS114_SPI
   *DEL*:           0000B5H   BYTE   UNIT     CODE           ?PR?_IPS114_SHOWUINT16?SEEKFREE_IPS114_SPI
   *DEL*:           00000AH   BYTE   UNIT     XDATA          ?XD?_IPS114_SHOWUINT16?SEEKFREE_IPS114_SPI
   *DEL*:           0000EAH   BYTE   UNIT     CODE           ?PR?_IPS114_SHOWINT32?SEEKFREE_IPS114_SPI
   *DEL*:           00002CH   BYTE   UNIT     XDATA          ?XD?_IPS114_SHOWINT32?SEEKFREE_IPS114_SPI
   *DEL*:           000166H   BYTE   UNIT     CODE           ?PR?_IPS114_SHOWFLOAT?SEEKFREE_IPS114_SPI
   *DEL*:           00002FH   BYTE   UNIT     XDATA          ?XD?_IPS114_SHOWFLOAT?SEEKFREE_IPS114_SPI
   *DEL*:           000006H   BYTE   UNIT     CODE           ?CO?SEEKFREE_IPS114_SPI
   *DEL*:           00002AH   BYTE   UNIT     CODE           ?PR?MPU6050_SELF1_CHECK?SEEKFREE_MPU6050
   *DEL*:           000049H   BYTE   UNIT     CODE           ?PR?MPU6050_INIT?SEEKFREE_MPU6050
   *DEL*:           00004DH   BYTE   UNIT     CODE           ?PR?MPU6050_GET_ACCDATA?SEEKFREE_MPU6050
   *DEL*:           000006H   BYTE   UNIT     XDATA          ?XD?MPU6050_GET_ACCDATA?SEEKFREE_MPU6050
   *DEL*:           00004DH   BYTE   UNIT     CODE           ?PR?MPU6050_GET_GYRO?SEEKFREE_MPU6050
   *DEL*:           000006H   BYTE   UNIT     XDATA          ?XD?MPU6050_GET_GYRO?SEEKFREE_MPU6050
   *DEL*:           00002AH   BYTE   UNIT     CODE           ?PR?_OLED_WRDAT?SEEKFREE_OLED
   *DEL*:           00002DH   BYTE   UNIT     CODE           ?PR?_OLED_WRCMD?SEEKFREE_OLED
   *DEL*:           000082H   BYTE   UNIT     CODE           ?PR?_OLED_HEXASCII?SEEKFREE_OLED
   *DEL*:           000007H   BYTE   UNIT     XDATA          ?XD?_OLED_HEXASCII?SEEKFREE_OLED
   *DEL*:           0000A6H   BYTE   UNIT     CODE           ?PR?OLED_INIT?SEEKFREE_OLED
   *DEL*:           000019H   BYTE   UNIT     CODE           ?PR?_OLED_SET_POS?SEEKFREE_OLED
   *DEL*:           000027H   BYTE   UNIT     CODE           ?PR?_OLED_FILL?SEEKFREE_OLED
   *DEL*:           00001EH   BYTE   UNIT     CODE           ?PR?_OLED_PUTPIXEL?SEEKFREE_OLED
   *DEL*:           00001EH   BYTE   UNIT     CODE           ?PR?_OLED_CLRPIXEL?SEEKFREE_OLED
   *DEL*:           00007FH   BYTE   UNIT     CODE           ?PR?_OLED_P6X8STR?SEEKFREE_OLED
LX51 LINKER/LOCATER V4.41                                                             05/12/2022  17:30:48  PAGE 9


   *DEL*:           000007H   BYTE   UNIT     XDATA          ?XD?_OLED_P6X8STR?SEEKFREE_OLED
   *DEL*:           0000B3H   BYTE   UNIT     CODE           ?PR?_OLED_P8X16STR?SEEKFREE_OLED
   *DEL*:           000007H   BYTE   UNIT     XDATA          ?XD?_OLED_P8X16STR?SEEKFREE_OLED
   *DEL*:           000026H   BYTE   UNIT     CODE           ?PR?_OLED_UINT16?SEEKFREE_OLED
   *DEL*:           000009H   BYTE   UNIT     XDATA          ?XD?_OLED_UINT16?SEEKFREE_OLED
   *DEL*:           000075H   BYTE   UNIT     CODE           ?PR?_OLED_INT16?SEEKFREE_OLED
   *DEL*:           00000BH   BYTE   UNIT     XDATA          ?XD?_OLED_INT16?SEEKFREE_OLED
   *DEL*:           0000E6H   BYTE   UNIT     CODE           ?PR?_OLED_PRINTF_INT32?SEEKFREE_OLED
   *DEL*:           00002CH   BYTE   UNIT     XDATA          ?XD?_OLED_PRINTF_INT32?SEEKFREE_OLED
   *DEL*:           000162H   BYTE   UNIT     CODE           ?PR?_OLED_PRINTF_FLOAT?SEEKFREE_OLED
   *DEL*:           00002FH   BYTE   UNIT     XDATA          ?XD?_OLED_PRINTF_FLOAT?SEEKFREE_OLED
   *DEL*:           0005ACH   BYTE   UNIT     CODE           ?PR?_OLED_DIS_BMP?SEEKFREE_OLED
   *DEL*:           000011H   BYTE   UNIT     XDATA          ?XD?_OLED_DIS_BMP?SEEKFREE_OLED
   *DEL*:           0000CFH   BYTE   UNIT     CODE           ?PR?_OLED_PRINT_CHINESE?SEEKFREE_OLED
   *DEL*:           00000DH   BYTE   UNIT     XDATA          ?XD?_OLED_PRINT_CHINESE?SEEKFREE_OLED
   *DEL*:           000025H   BYTE   UNIT     CODE           ?PR?OLED_CLS?SEEKFREE_OLED
   *DEL*:           00000FH   BYTE   UNIT     CODE           ?PR?_OLED_WRDAT_SPI?SEEKFREE_OLED
   *DEL*:           000013H   BYTE   UNIT     CODE           ?PR?_OLED_WRCMD_SPI?SEEKFREE_OLED
   *DEL*:           000082H   BYTE   UNIT     CODE           ?PR?_OLED_HEXASCII_SPI?SEEKFREE_OLED
   *DEL*:           000007H   BYTE   UNIT     XDATA          ?XD?_OLED_HEXASCII_SPI?SEEKFREE_OLED
   *DEL*:           0000BAH   BYTE   UNIT     CODE           ?PR?OLED_INIT_SPI?SEEKFREE_OLED
   *DEL*:           00001CH   BYTE   UNIT     CODE           ?PR?_OLED_SET_POS_SPI?SEEKFREE_OLED
   *DEL*:           000001H   BYTE   UNIT     XDATA          ?XD?_OLED_SET_POS_SPI?SEEKFREE_OLED
   *DEL*:           000045H   BYTE   UNIT     CODE           ?PR?_OLED_FILL_SPI?SEEKFREE_OLED
   *DEL*:           000003H   BYTE   UNIT     XDATA          ?XD?_OLED_FILL_SPI?SEEKFREE_OLED
   *DEL*:           000032H   BYTE   UNIT     CODE           ?PR?_OLED_PUTPIXEL_SPI?SEEKFREE_OLED
   *DEL*:           000003H   BYTE   UNIT     XDATA          ?XD?_OLED_PUTPIXEL_SPI?SEEKFREE_OLED
   *DEL*:           00002AH   BYTE   UNIT     CODE           ?PR?_OLED_CLRPIXEL_SPI?SEEKFREE_OLED
   *DEL*:           000002H   BYTE   UNIT     XDATA          ?XD?_OLED_CLRPIXEL_SPI?SEEKFREE_OLED
   *DEL*:           000095H   BYTE   UNIT     CODE           ?PR?_OLED_P6X8STR_SPI?SEEKFREE_OLED
   *DEL*:           000008H   BYTE   UNIT     XDATA          ?XD?_OLED_P6X8STR_SPI?SEEKFREE_OLED
   *DEL*:           0000D9H   BYTE   UNIT     CODE           ?PR?_OLED_P8X16STR_SPI?SEEKFREE_OLED
   *DEL*:           000008H   BYTE   UNIT     XDATA          ?XD?_OLED_P8X16STR_SPI?SEEKFREE_OLED
   *DEL*:           000026H   BYTE   UNIT     CODE           ?PR?_OLED_UINT16_SPI?SEEKFREE_OLED
   *DEL*:           000009H   BYTE   UNIT     XDATA          ?XD?_OLED_UINT16_SPI?SEEKFREE_OLED
   *DEL*:           000075H   BYTE   UNIT     CODE           ?PR?_OLED_INT16_SPI?SEEKFREE_OLED
   *DEL*:           00000BH   BYTE   UNIT     XDATA          ?XD?_OLED_INT16_SPI?SEEKFREE_OLED
   *DEL*:           0000E6H   BYTE   UNIT     CODE           ?PR?_OLED_PRINTF_INT32_SPI?SEEKFREE_OLED
   *DEL*:           00002CH   BYTE   UNIT     XDATA          ?XD?_OLED_PRINTF_INT32_SPI?SEEKFREE_OLED
   *DEL*:           000162H   BYTE   UNIT     CODE           ?PR?_OLED_PRINTF_FLOAT_SPI?SEEKFREE_OLED
   *DEL*:           00002FH   BYTE   UNIT     XDATA          ?XD?_OLED_PRINTF_FLOAT_SPI?SEEKFREE_OLED
   *DEL*:           0005AEH   BYTE   UNIT     CODE           ?PR?_OLED_DIS_BMP_SPI?SEEKFREE_OLED
   *DEL*:           000011H   BYTE   UNIT     XDATA          ?XD?_OLED_DIS_BMP_SPI?SEEKFREE_OLED
   *DEL*:           0000CFH   BYTE   UNIT     CODE           ?PR?_OLED_PRINT_CHINESE_SPI?SEEKFREE_OLED
   *DEL*:           00000DH   BYTE   UNIT     XDATA          ?XD?_OLED_PRINT_CHINESE_SPI?SEEKFREE_OLED
   *DEL*:           0000B5H   BYTE   UNIT     CODE           ?PR?_OLED_P6X8NUM?SEEKFREE_OLED
   *DEL*:           000008H   BYTE   UNIT     XDATA          ?XD?_OLED_P6X8NUM?SEEKFREE_OLED
   *DEL*:           0000F1H   BYTE   UNIT     CODE           ?PR?_OLED_P6X8FLOAT?SEEKFREE_OLED
   *DEL*:           00003DH   BYTE   UNIT     XDATA          ?XD?_OLED_P6X8FLOAT?SEEKFREE_OLED
   *DEL*:           000085H   BYTE   UNIT     CODE           ?PR?_OLED_P6X8STR_INV?SEEKFREE_OLED
   *DEL*:           000007H   BYTE   UNIT     XDATA          ?XD?_OLED_P6X8STR_INV?SEEKFREE_OLED
   *DEL*:           000019H   BYTE   UNIT     CODE           ?CO?SEEKFREE_OLED
   *DEL*:           000010H   BYTE   UNIT     CODE           ?PR?_ENCODER_DELAY_US?SEEKFREE_ABSOLUTE_ENCODER
   *DEL*:           00001EH   BYTE   UNIT     CODE           ?PR?_SIMSPI_WR_BYTE?SEEKFREE_ABSOLUTE_ENCODER
   *DEL*:           000011H   BYTE   UNIT     CODE           ?PR?_SIMSPI_W_REG_BYTE?SEEKFREE_ABSOLUTE_ENCODER
   *DEL*:           000015H   BYTE   UNIT     CODE           ?PR?_SIMSPI_R_REG_BYTE?SEEKFREE_ABSOLUTE_ENCODER
   *DEL*:           00002CH   BYTE   UNIT     CODE           ?PR?_ENCODER_SIMSPI_W_REG_BYTE?SEEKFREE_ABSOLUTE_ENCODER
   *DEL*:           000001H   BYTE   UNIT     XDATA          ?XD?_ENCODER_SIMSPI_W_REG_BYTE?SEEKFREE_ABSOLUTE_ENCODER
   *DEL*:           000032H   BYTE   UNIT     CODE           ?PR?_ENCODER_SIMSPI_R_REG_BYTE?SEEKFREE_ABSOLUTE_ENCODER
   *DEL*:           000003H   BYTE   UNIT     XDATA          ?XD?_ENCODER_SIMSPI_R_REG_BYTE?SEEKFREE_ABSOLUTE_ENCODER
   *DEL*:           000038H   BYTE   UNIT     CODE           ?PR?_SET_ZERO_POSITION_SIMSPI?SEEKFREE_ABSOLUTE_ENCODER
   *DEL*:           000002H   BYTE   UNIT     XDATA          ?XD?_SET_ZERO_POSITION_SIMSPI?SEEKFREE_ABSOLUTE_ENCODER
   *DEL*:           000021H   BYTE   UNIT     CODE           ?PR?ENCODER_ANGLE_SIMSPI?SEEKFREE_ABSOLUTE_ENCODER
   *DEL*:           000013H   BYTE   UNIT     CODE           ?PR?ENCODER_SELF4_CHECK?SEEKFREE_ABSOLUTE_ENCODER
   *DEL*:           000001H   BYTE   UNIT     XDATA          ?XD?ENCODER_SELF4_CHECK?SEEKFREE_ABSOLUTE_ENCODER
LX51 LINKER/LOCATER V4.41                                                             05/12/2022  17:30:48  PAGE 10


   *DEL*:           000010H   BYTE   UNIT     CODE           ?PR?ENCODER_INIT_SIMSPI?SEEKFREE_ABSOLUTE_ENCODER
   *DEL*:           000012H   BYTE   UNIT     CODE           ?PR?_SPI_WR_BYTE?SEEKFREE_ABSOLUTE_ENCODER
   *DEL*:           000019H   BYTE   UNIT     CODE           ?PR?_SPI_W_REG_BYTE?SEEKFREE_ABSOLUTE_ENCODER
   *DEL*:           000001H   BYTE   UNIT     XDATA          ?XD?_SPI_W_REG_BYTE?SEEKFREE_ABSOLUTE_ENCODER
   *DEL*:           00001DH   BYTE   UNIT     CODE           ?PR?_SPI_R_REG_BYTE?SEEKFREE_ABSOLUTE_ENCODER
   *DEL*:           000003H   BYTE   UNIT     XDATA          ?XD?_SPI_R_REG_BYTE?SEEKFREE_ABSOLUTE_ENCODER
   *DEL*:           00003FH   BYTE   UNIT     CODE           ?PR?_ENCODER_SPI_W_REG_BYTE?SEEKFREE_ABSOLUTE_ENCODER
   *DEL*:           000002H   BYTE   UNIT     XDATA          ?XD?_ENCODER_SPI_W_REG_BYTE?SEEKFREE_ABSOLUTE_ENCODER
   *DEL*:           00002EH   BYTE   UNIT     CODE           ?PR?_ENCODER_SPI_R_REG_BYTE?SEEKFREE_ABSOLUTE_ENCODER
   *DEL*:           000003H   BYTE   UNIT     XDATA          ?XD?_ENCODER_SPI_R_REG_BYTE?SEEKFREE_ABSOLUTE_ENCODER
   *DEL*:           000038H   BYTE   UNIT     CODE           ?PR?_SET_ZERO_POSITION_SPI?SEEKFREE_ABSOLUTE_ENCODER
   *DEL*:           000002H   BYTE   UNIT     XDATA          ?XD?_SET_ZERO_POSITION_SPI?SEEKFREE_ABSOLUTE_ENCODER
   *DEL*:           000041H   BYTE   UNIT     CODE           ?PR?ENCODER_ANGLE_SPI?SEEKFREE_ABSOLUTE_ENCODER
   *DEL*:           000002H   BYTE   UNIT     XDATA          ?XD?ENCODER_ANGLE_SPI?SEEKFREE_ABSOLUTE_ENCODER
   *DEL*:           000013H   BYTE   UNIT     CODE           ?PR?ENCODER_SELF5_CHECK?SEEKFREE_ABSOLUTE_ENCODER
   *DEL*:           000001H   BYTE   UNIT     XDATA          ?XD?ENCODER_SELF5_CHECK?SEEKFREE_ABSOLUTE_ENCODER
   *DEL*:           000026H   BYTE   UNIT     CODE           ?PR?ENCODER_INIT_SPI?SEEKFREE_ABSOLUTE_ENCODER
   *DEL*:           000007H   BYTE   UNIT     CODE           ?PR?WIRELESS_UART_CALLBACK?SEEKFREE_WIRELESS
   *DEL*:           000001H   BYTE   UNIT     XDATA          ?XD?WIRELESS_UART_CALLBACK?SEEKFREE_WIRELESS
   *DEL*:           00001FH   BYTE   UNIT     CODE           ?PR?SEEKFREE_WIRELESS_INIT?SEEKFREE_WIRELESS
   *DEL*:           0000ACH   BYTE   UNIT     CODE           ?PR?_SEEKFREE_WIRELESS_SEND_BUFF?SEEKFREE_WIRELESS
   *DEL*:           000007H   BYTE   UNIT     XDATA          ?XD?_SEEKFREE_WIRELESS_SEND_BUFF?SEEKFREE_WIRELESS
   *DEL*:           000089H   BYTE   UNIT     CODE           ?PR?_CRC_CHECK?SEEKFREE_VIRSCO
   *DEL*:           000007H   BYTE   UNIT     XDATA          ?XD?_CRC_CHECK?SEEKFREE_VIRSCO
   *DEL*:           0000A3H   BYTE   UNIT     CODE           ?PR?_DATA_CONVERSION?SEEKFREE_VIRSCO
   *DEL*:           00000BH   BYTE   UNIT     XDATA          ?XD?_DATA_CONVERSION?SEEKFREE_VIRSCO
   *DEL*:           0001B2H   BYTE   UNIT     CODE           ?PR?_NUMBER_CONVERSION_ASCII?SEEKFREE_PRINTF
   *DEL*:           000013H   BYTE   UNIT     XDATA          ?XD?_NUMBER_CONVERSION_ASCII?SEEKFREE_PRINTF
   *DEL*:           0000F9H   BYTE   UNIT     CODE           ?PR?_PRINTF_REVERSE_ORDER?SEEKFREE_PRINTF
   *DEL*:           00000CH   BYTE   UNIT     XDATA          ?XD?_PRINTF_REVERSE_ORDER?SEEKFREE_PRINTF
   *DEL*:           000594H   BYTE   UNIT     CODE           ?PR?_ZF_SPRINTF?SEEKFREE_PRINTF
   *DEL*:           00005CH   BYTE   UNIT     XDATA          ?XD?_ZF_SPRINTF?SEEKFREE_PRINTF
   *DEL*:           000007H   BYTE   UNIT     CODE           ?PR?WIRELESS_CH573_CALLBACK?SEEKFREE_WIRELESS_CH573
   *DEL*:           000001H   BYTE   UNIT     XDATA          ?XD?WIRELESS_CH573_CALLBACK?SEEKFREE_WIRELESS_CH573
   *DEL*:           00001FH   BYTE   UNIT     CODE           ?PR?WIRELESS_CH573_INIT?SEEKFREE_WIRELESS_CH573
   *DEL*:           00008BH   BYTE   UNIT     CODE           ?PR?_WIRELESS_CH573_SEND_BUFF?SEEKFREE_WIRELESS_CH573
   *DEL*:           000005H   BYTE   UNIT     XDATA          ?XD?_WIRELESS_CH573_SEND_BUFF?SEEKFREE_WIRELESS_CH573
   *DEL*:           000033H   BYTE   UNIT     CODE           ?PR?BLUETOOTH_CH9141_UART_CALLBACK?SEEKFREE_BLUETOOTH_CH91
                                                             -41
   *DEL*:           000038H   BYTE   UNIT     CODE           ?PR?BLUETOOTH_CH9141_CHECK_RESPONSE?SEEKFREE_BLUETOOTH_CH9
                                                             -141
   *DEL*:           000021H   BYTE   UNIT     CODE           ?PR?_BLUETOOTH_CH9141_SEND_AT_COMMAND?SEEKFREE_BLUETOOTH_C
                                                             -H9141
   *DEL*:           00005DH   BYTE   UNIT     CODE           ?PR?_BLUETOOTH_CH9141_SEND_AT_COMMAND_PARAMETER?SEEKFREE_B
                                                             -LUETOOTH_CH9141
   *DEL*:           000006H   BYTE   UNIT     XDATA          ?XD?_BLUETOOTH_CH9141_SEND_AT_COMMAND_PARAMETER?SEEKFREE_B
                                                             -LUETOOTH_CH9141
   *DEL*:           000016H   BYTE   UNIT     CODE           ?PR?BLUETOOTH_CH9141_ENTER_AT_MODE?SEEKFREE_BLUETOOTH_CH91
                                                             -41
   *DEL*:           000015H   BYTE   UNIT     CODE           ?PR?BLUETOOTH_CH9141_EXIT_AT_MODE?SEEKFREE_BLUETOOTH_CH914
                                                             -1
   *DEL*:           000025H   BYTE   UNIT     CODE           ?PR?BLUETOOTH_CH9141_RESET?SEEKFREE_BLUETOOTH_CH9141
   *DEL*:           00001CH   BYTE   UNIT     CODE           ?PR?BLUETOOTH_CH9141_GET_MAC_ADDRESS?SEEKFREE_BLUETOOTH_CH
                                                             -9141
   *DEL*:           00001EH   BYTE   UNIT     CODE           ?PR?_BLUETOOTH_CH9141_SET_TX_POWER?SEEKFREE_BLUETOOTH_CH91
                                                             -41
   *DEL*:           000001H   BYTE   UNIT     XDATA          ?XD?_BLUETOOTH_CH9141_SET_TX_POWER?SEEKFREE_BLUETOOTH_CH91
                                                             -41
   *DEL*:           00001EH   BYTE   UNIT     CODE           ?PR?_BLUETOOTH_CH9141_SET_MODE?SEEKFREE_BLUETOOTH_CH9141
   *DEL*:           000001H   BYTE   UNIT     XDATA          ?XD?_BLUETOOTH_CH9141_SET_MODE?SEEKFREE_BLUETOOTH_CH9141
   *DEL*:           000046H   BYTE   UNIT     CODE           ?PR?_BLUETOOTH_CH9141_GET_STATUS?SEEKFREE_BLUETOOTH_CH9141
   *DEL*:           000002H   BYTE   UNIT     XDATA          ?XD?_BLUETOOTH_CH9141_GET_STATUS?SEEKFREE_BLUETOOTH_CH9141
   *DEL*:           000047H   BYTE   UNIT     CODE           ?PR?_BLUETOOTH_CH9141_SET_NAME?SEEKFREE_BLUETOOTH_CH9141
   *DEL*:           000003H   BYTE   UNIT     XDATA          ?XD?_BLUETOOTH_CH9141_SET_NAME?SEEKFREE_BLUETOOTH_CH9141
   *DEL*:           000057H   BYTE   UNIT     CODE           ?PR?_BLUETOOTH_CH9141_SET_PASSWORD?SEEKFREE_BLUETOOTH_CH91
LX51 LINKER/LOCATER V4.41                                                             05/12/2022  17:30:48  PAGE 11


                                                             -41
   *DEL*:           000003H   BYTE   UNIT     XDATA          ?XD?_BLUETOOTH_CH9141_SET_PASSWORD?SEEKFREE_BLUETOOTH_CH91
                                                             -41
   *DEL*:           000029H   BYTE   UNIT     CODE           ?PR?_BLUETOOTH_CH9141_CONNECT?SEEKFREE_BLUETOOTH_CH9141
   *DEL*:           000003H   BYTE   UNIT     XDATA          ?XD?_BLUETOOTH_CH9141_CONNECT?SEEKFREE_BLUETOOTH_CH9141
   *DEL*:           000029H   BYTE   UNIT     CODE           ?PR?_BLUETOOTH_CH9141_DEFAULT_CONNECT?SEEKFREE_BLUETOOTH_C
                                                             -H9141
   *DEL*:           000003H   BYTE   UNIT     XDATA          ?XD?_BLUETOOTH_CH9141_DEFAULT_CONNECT?SEEKFREE_BLUETOOTH_C
                                                             -H9141
   *DEL*:           000083H   BYTE   UNIT     CODE           ?PR?BLUETOOTH_CH9141_GET_RSSI?SEEKFREE_BLUETOOTH_CH9141
   *DEL*:           000004H   BYTE   UNIT     XDATA          ?XD?BLUETOOTH_CH9141_GET_RSSI?SEEKFREE_BLUETOOTH_CH9141
   *DEL*:           000076H   BYTE   UNIT     CODE           ?PR?_BLUETOOTH_CH9141_SEND_BUFF?SEEKFREE_BLUETOOTH_CH9141
   *DEL*:           000007H   BYTE   UNIT     XDATA          ?XD?_BLUETOOTH_CH9141_SEND_BUFF?SEEKFREE_BLUETOOTH_CH9141
   *DEL*:           0000C8H   BYTE   UNIT     CODE           ?PR?_BLUETOOTH_CH9141_INIT?SEEKFREE_BLUETOOTH_CH9141
   *DEL*:           000004H   BYTE   UNIT     XDATA          ?XD?_BLUETOOTH_CH9141_INIT?SEEKFREE_BLUETOOTH_CH9141
   *DEL*:           000082H   BYTE   UNIT     CODE           ?CO?SEEKFREE_BLUETOOTH_CH9141
   *DEL*:           000483H   BYTE   UNIT     CODE           ?PR?PRINTF?PRINTF
   *DEL*:           000005H   BYTE   UNIT     DATA           ?DT?PRINTF?PRINTF
   *DEL*:           000001H.1 BIT    UNIT     BIT            ?BI?PRINTF?PRINTF
   *DEL*:           000030H   BYTE   UNIT     XDATA          ?XD?PRINTF?PRINTF
   *DEL*:           000087H   BYTE   UNIT     CODE           ?PR?_STRNCMP?STRNCMP
   *DEL*:           000008H   BYTE   UNIT     XDATA          ?XD?_STRNCMP?STRNCMP
   *DEL*:           000015H   BYTE   UNIT     CODE           ?PR?_STRLEN?STRLEN



OVERLAY MAP OF MODULE:   .\Out_File\SEEKFREE (COMMON)


FUNCTION/MODULE                               XDATA_GROUP
--> CALLED FUNCTION/MODULE                    START  STOP
=========================================================
UART1_ISR/ISR                                 ----- -----

*** NEW ROOT ********************************

UART2_ISR/ISR                                 ----- -----

*** NEW ROOT ********************************

UART3_ISR/ISR                                 ----- -----

*** NEW ROOT ********************************

UART4_ISR/ISR                                 ----- -----

*** NEW ROOT ********************************

INT0_ISR/ISR                                  ----- -----

*** NEW ROOT ********************************

INT1_ISR/ISR                                  ----- -----

*** NEW ROOT ********************************

INT2_ISR/ISR                                  ----- -----

*** NEW ROOT ********************************

INT3_ISR/ISR                                  ----- -----

*** NEW ROOT ********************************

INT4_ISR/ISR                                  ----- -----
LX51 LINKER/LOCATER V4.41                                                             05/12/2022  17:30:48  PAGE 12



*** NEW ROOT ********************************

TM0_ISR/ISR                                   ----- -----

*** NEW ROOT ********************************

TM1_ISR/ISR                                   ----- -----

*** NEW ROOT ********************************

TM2_ISR/ISR                                   ----- -----

*** NEW ROOT ********************************

TM3_ISR/ISR                                   ----- -----

*** NEW ROOT ********************************

TM4_ISR/ISR                                   ----- -----
  +--> ?PR?CCD_COLLECT?SEEKFREE_TSL1401

CCD_COLLECT/SEEKFREE_TSL1401                  0225H 0225H
  +--> ?PR?_ADC_ONCE?ZF_ADC

_ADC_ONCE/ZF_ADC                              ----- -----

*** NEW ROOT ********************************

?C_C51STARTUP                                 ----- -----
  +--> ?PR?MAIN?MAIN
  +--> ?C_INITSEG

MAIN/MAIN                                     ----- -----
  +--> ?PR?DISABLEGLOBALIRQ?BOARD
  +--> ?PR?BOARD_INIT?BOARD
  +--> ?PR?_DELAY_MS?ZF_DELAY
  +--> ?PR?ENABLEGLOBALIRQ?BOARD

DISABLEGLOBALIRQ/BOARD                        ----- -----

BOARD_INIT/BOARD                              ----- -----
  +--> ?PR?DELAY_INIT?ZF_DELAY
  +--> ?PR?_UART_INIT?ZF_UART

DELAY_INIT/ZF_DELAY                           ----- -----

_UART_INIT/ZF_UART                            0226H 022DH

_DELAY_MS/ZF_DELAY                            ----- -----

ENABLEGLOBALIRQ/BOARD                         ----- -----

?C_INITSEG                                    ----- -----



PUBLIC SYMBOLS OF MODULE:  .\Out_File\SEEKFREE (COMMON)


      VALUE       CLASS    TYPE      PUBLIC SYMBOL NAME
      =================================================
*DEL*:00000000H   XDATA    BYTE      ?_bluetooth_ch9141_send_at_command_parameter?BYTE
*DEL*:00000000H   XDATA    BYTE      ?_data_conversion?BYTE
*DEL*:00000000H   XDATA    BYTE      ?_extern_iap_write_bytes?BYTE
LX51 LINKER/LOCATER V4.41                                                             05/12/2022  17:30:48  PAGE 13


*DEL*:00000000H   XDATA    BYTE      ?_iap_read_bytes?BYTE
*DEL*:00000000H   XDATA    BYTE      ?_iap_write_bytes?BYTE
*DEL*:00000000H   XDATA    BYTE      ?_icm_simspi_r_reg_bytes?BYTE
*DEL*:00000000H   XDATA    BYTE      ?_icm_spi_r_reg_bytes?BYTE
*DEL*:00000000H   XDATA    BYTE      ?_iic_init?BYTE
*DEL*:00000000H   XDATA    BYTE      ?_iic_read_reg_bytes?BYTE
*DEL*:00000000H   XDATA    BYTE      ?_ips114_set_region?BYTE
*DEL*:00000000H   XDATA    BYTE      ?_ips114_set_region_simspi?BYTE
*DEL*:00000000H   XDATA    BYTE      ?_ips114_showfloat?BYTE
*DEL*:00000000H   XDATA    BYTE      ?_ips114_showfloat_simspi?BYTE
*DEL*:00000000H   XDATA    BYTE      ?_ips114_showint32?BYTE
*DEL*:00000000H   XDATA    BYTE      ?_ips114_showint32_simspi?BYTE
*DEL*:00000000H   XDATA    BYTE      ?_lcd_set_region?BYTE
*DEL*:00000000H   XDATA    BYTE      ?_lcd_set_region_simspi?BYTE
*DEL*:00000000H   XDATA    BYTE      ?_lcd_showfloat?BYTE
*DEL*:00000000H   XDATA    BYTE      ?_lcd_showfloat_simspi?BYTE
*DEL*:00000000H   XDATA    BYTE      ?_lcd_showint32?BYTE
*DEL*:00000000H   XDATA    BYTE      ?_lcd_showint32_simspi?BYTE
*DEL*:00000000H   XDATA    BYTE      ?_number_conversion_ascii?BYTE
*DEL*:00000000H   XDATA    BYTE      ?_oled_dis_bmp?BYTE
*DEL*:00000000H   XDATA    BYTE      ?_oled_dis_bmp_spi?BYTE
*DEL*:00000000H   XDATA    BYTE      ?_oled_p6x8float?BYTE
*DEL*:00000000H   XDATA    BYTE      ?_oled_print_chinese?BYTE
*DEL*:00000000H   XDATA    BYTE      ?_oled_print_chinese_spi?BYTE
*DEL*:00000000H   XDATA    BYTE      ?_oled_printf_float?BYTE
*DEL*:00000000H   XDATA    BYTE      ?_oled_printf_float_spi?BYTE
*DEL*:00000000H   XDATA    BYTE      ?_oled_printf_int32?BYTE
*DEL*:00000000H   XDATA    BYTE      ?_oled_printf_int32_spi?BYTE
*DEL*:00000000H   XDATA    ---       ?_PRINTF?BYTE
*DEL*:00000000H   XDATA    BYTE      ?_pwm_freq?BYTE
*DEL*:00000000H   XDATA    BYTE      ?_pwm_init?BYTE
*DEL*:00000000H   XDATA    BYTE      ?_simiic_read_regs?BYTE
*DEL*:00000000H   XDATA    BYTE      ?_spi_change_pin?BYTE
*DEL*:00000000H   XDATA    BYTE      ?_spi_init?BYTE
*DEL*:00000000H   XDATA    ---       ?_SPRINTF?BYTE
*DEL*:00000000H   XDATA    ---       ?_strncmp?BYTE
      02000226H   XDATA    BYTE      ?_uart_init?BYTE
*DEL*:00000000H   XDATA    BYTE      ?_uart_putbuff?BYTE
*DEL*:00000000H   XDATA    BYTE      ?_zf_sprintf?BYTE
      01000B5AH   CODE     ---       ?C?CASTF
      01001268H   CODE     ---       ?C?CCASE
      01000EBEH   CODE     ---       ?C?CLDOPTR
      01000EA5H   CODE     ---       ?C?CLDPTR
      00000000H   NUMBER   ---       ?C?CODESEG
      01000E5DH   CODE     ---       ?C?COPY
      01000EFDH   CODE     ---       ?C?CSTOPTR
      01000EEBH   CODE     ---       ?C?CSTPTR
      01000B26H   CODE     ---       ?C?FCASTC
      01000B21H   CODE     ---       ?C?FCASTI
      01000B1CH   CODE     ---       ?C?FCASTL
      01000807H   CODE     ---       ?C?FPADD
      01000AA0H   CODE     ---       ?C?FPCMP
      01000A9EH   CODE     ---       ?C?FPCMP3
      01000C18H   CODE     ---       ?C?FPCONVERT
      01000A01H   CODE     ---       ?C?FPDIV
      01000B91H   CODE     ---       ?C?FPGETOPN2
      010008F8H   CODE     ---       ?C?FPMUL
      01000BC6H   CODE     ---       ?C?FPNANRESULT
      01000B0BH   CODE     ---       ?C?FPNEG
      01000BD0H   CODE     ---       ?C?FPOVERFLOW
      01000BA8H   CODE     ---       ?C?FPRESULT
      01000BBCH   CODE     ---       ?C?FPRESULT2
      01000BDBH   CODE     ---       ?C?FPROUND
      01000803H   CODE     ---       ?C?FPSUB
      01000BCDH   CODE     ---       ?C?FPUNDERFLOW
LX51 LINKER/LOCATER V4.41                                                             05/12/2022  17:30:48  PAGE 14


      01000D4DH   CODE     ---       ?C?FTNPWR
      01000FBCH   CODE     ---       ?C?IILDX
      01000FD2H   CODE     ---       ?C?ILDIX
      01000FE8H   CODE     ---       ?C?ILDOPTR
      01000F1FH   CODE     ---       ?C?IMUL
      010012B2H   CODE     ---       ?C?LLDCODE
      0100128EH   CODE     ---       ?C?LLDIDATA
      010011AEH   CODE     ---       ?C?LLDIXDATA
      010011A5H   CODE     ---       ?C?LLDIXDATA1
      010011A7H   CODE     ---       ?C?LLDIXDATA8
      010012A6H   CODE     ---       ?C?LLDPDATA
      01001185H   CODE     ---       ?C?LLDPTR
      0100129AH   CODE     ---       ?C?LLDXDATA
      01001020H   CODE     ---       ?C?LMUL
      0100113DH   CODE     ---       ?C?LNEG
      010011E6H   CODE     ---       ?C?LSTKXDATA
      010011DAH   CODE     ---       ?C?LSTXDATA
      01001217H   CODE     ---       ?C?OFFX256
      010012DDH   CODE     ---       ?C?PLDCODE
      010012C2H   CODE     ---       ?C?PLDIDATA
      01001228H   CODE     ---       ?C?PLDIXDATA
      010012D4H   CODE     ---       ?C?PLDPDATA
      01001248H   CODE     ---       ?C?PLDPTR
      010012CBH   CODE     ---       ?C?PLDXDATA
      0100123FH   CODE     ---       ?C?PSTXDATA
      01000E83H   CODE     ---       ?C?SCDIV
      01000F86H   CODE     ---       ?C?SIDIV
      0100114BH   CODE     ---       ?C?SLCMP
      01001696H   CODE     ---       ?C?SLDIV
      01000F31H   CODE     ---       ?C?UIDIV
      01001161H   CODE     ---       ?C?ULCMP
      010010ABH   CODE     ---       ?C?ULDIV
      01001172H   CODE     ---       ?C?ULSHR
      00000000H   NUMBER   ---       ?C?XDATASEG
      010014D7H   CODE     ---       ?C_START
      01000000H   CODE     ---       ?C_STARTUP
*DEL*:00000000H   CODE     ---       _adc_init
      01001718H   CODE     ---       _adc_once
*DEL*:00000000H   CODE     ---       _bluetooth_ch9141_connect
*DEL*:00000000H   CODE     ---       _bluetooth_ch9141_default_connect
*DEL*:00000000H   CODE     ---       _bluetooth_ch9141_get_status
*DEL*:00000000H   CODE     ---       _bluetooth_ch9141_init
*DEL*:00000000H   CODE     ---       _bluetooth_ch9141_send_at_command
*DEL*:00000000H   CODE     ---       _bluetooth_ch9141_send_at_command_parameter
*DEL*:00000000H   CODE     ---       _bluetooth_ch9141_send_buff
*DEL*:00000000H   CODE     ---       _bluetooth_ch9141_set_mode
*DEL*:00000000H   CODE     ---       _bluetooth_ch9141_set_name
*DEL*:00000000H   CODE     ---       _bluetooth_ch9141_set_password
*DEL*:00000000H   CODE     ---       _bluetooth_ch9141_set_tx_power
*DEL*:00000000H   CODE     ---       _ccd_send_data
*DEL*:00000000H   CODE     ---       _CRC_CHECK
*DEL*:00000000H   CODE     ---       _ctimer_count_clean
*DEL*:00000000H   CODE     ---       _ctimer_count_init
*DEL*:00000000H   CODE     ---       _ctimer_count_read
*DEL*:00000000H   CODE     ---       _data_conversion
      010017D1H   CODE     ---       _delay_ms
*DEL*:00000000H   CODE     ---       _delay_us
*DEL*:0000000AH   CODE     ---       _encoder_delay_us
*DEL*:00000000H   CODE     ---       _encoder_simspi_r_reg_byte
*DEL*:00000000H   CODE     ---       _encoder_simspi_w_reg_byte
*DEL*:00000000H   CODE     ---       _encoder_spi_r_reg_byte
*DEL*:00000000H   CODE     ---       _encoder_spi_w_reg_byte
*DEL*:00000000H   CODE     ---       _exit_init
*DEL*:00000000H   CODE     ---       _extern_iap_write_bytes
*DEL*:00000000H   CODE     ---       _gpio_mode
LX51 LINKER/LOCATER V4.41                                                             05/12/2022  17:30:48  PAGE 15


*DEL*:00000000H   CODE     ---       _gpio_pull_set
*DEL*:00000000H   CODE     ---       _iap_erase_page
*DEL*:00000000H   CODE     ---       _iap_read_bytes
*DEL*:00000000H   CODE     ---       _iap_write_bytes
*DEL*:00000000H   CODE     ---       _icm_simspi_r_reg_byte
*DEL*:00000000H   CODE     ---       _icm_simspi_r_reg_bytes
*DEL*:00000000H   CODE     ---       _icm_simspi_w_reg_byte
*DEL*:00000006H   CODE     ---       _icm_simspi_wr_byte
*DEL*:00000000H   CODE     ---       _icm_spi_r_reg_byte
*DEL*:00000000H   CODE     ---       _icm_spi_r_reg_bytes
*DEL*:00000000H   CODE     ---       _icm_spi_w_reg_byte
*DEL*:0000000EH   CODE     ---       _icm_spi_wr_byte
*DEL*:00000000H   CODE     ---       _iic_change_pin
*DEL*:00000000H   CODE     ---       _iic_delay_us
*DEL*:00000000H   CODE     ---       _iic_init
*DEL*:00000000H   CODE     ---       _iic_read_reg
*DEL*:00000000H   CODE     ---       _iic_read_reg_bytes
*DEL*:00000000H   CODE     ---       _iic_write_reg
*DEL*:00000000H   CODE     ---       _ips114_clear
*DEL*:00000000H   CODE     ---       _ips114_clear_simspi
*DEL*:00000000H   CODE     ---       _ips114_drawpoint
*DEL*:00000000H   CODE     ---       _ips114_drawpoint_simspi
*DEL*:00000000H   CODE     ---       _ips114_set_region
*DEL*:00000000H   CODE     ---       _ips114_set_region_simspi
*DEL*:00000018H   CODE     ---       _ips114_showchar
*DEL*:00000018H   CODE     ---       _ips114_showchar_simspi
*DEL*:00000000H   CODE     ---       _ips114_showfloat
*DEL*:00000000H   CODE     ---       _ips114_showfloat_simspi
*DEL*:00000000H   CODE     ---       _ips114_showint16
*DEL*:00000000H   CODE     ---       _ips114_showint16_simspi
*DEL*:00000000H   CODE     ---       _ips114_showint32
*DEL*:00000000H   CODE     ---       _ips114_showint32_simspi
*DEL*:00000000H   CODE     ---       _ips114_showint8
*DEL*:00000000H   CODE     ---       _ips114_showint8_simspi
*DEL*:00000000H   CODE     ---       _ips114_showstr
*DEL*:00000000H   CODE     ---       _ips114_showstr_simspi
*DEL*:00000000H   CODE     ---       _ips114_showuint16
*DEL*:00000000H   CODE     ---       _ips114_showuint16_simspi
*DEL*:00000000H   CODE     ---       _ips114_showuint8
*DEL*:00000000H   CODE     ---       _ips114_showuint8_simspi
*DEL*:00000000H   CODE     ---       _ips114_writeData
*DEL*:00000007H   CODE     ---       _ips114_writedata_16bit
*DEL*:0000000AH   CODE     ---       _ips114_writeData_simspi
*DEL*:00000007H   CODE     ---       _ips114_writeDatai_16bit_simspi
*DEL*:00000000H   CODE     ---       _ips114_writeIndex
*DEL*:00000000H   CODE     ---       _ips114_writeIndex_simspi
*DEL*:00000000H   CODE     ---       _lcd_clear
*DEL*:00000000H   CODE     ---       _lcd_clear_simspi
*DEL*:00000000H   CODE     ---       _lcd_drawpoint
*DEL*:00000000H   CODE     ---       _lcd_drawpoint_simspi
*DEL*:00000000H   CODE     ---       _lcd_set_region
*DEL*:00000000H   CODE     ---       _lcd_set_region_simspi
*DEL*:00000018H   CODE     ---       _lcd_showchar
*DEL*:00000018H   CODE     ---       _lcd_showchar_simspi
*DEL*:00000000H   CODE     ---       _lcd_showfloat
*DEL*:00000000H   CODE     ---       _lcd_showfloat_simspi
*DEL*:00000000H   CODE     ---       _lcd_showint16
*DEL*:00000000H   CODE     ---       _lcd_showint16_simspi
*DEL*:00000000H   CODE     ---       _lcd_showint32
*DEL*:00000000H   CODE     ---       _lcd_showint32_simspi
*DEL*:00000000H   CODE     ---       _lcd_showint8
*DEL*:00000000H   CODE     ---       _lcd_showint8_simspi
*DEL*:00000000H   CODE     ---       _lcd_showstr
*DEL*:00000000H   CODE     ---       _lcd_showstr_simspi
*DEL*:00000000H   CODE     ---       _lcd_showuint16
LX51 LINKER/LOCATER V4.41                                                             05/12/2022  17:30:48  PAGE 16


*DEL*:00000000H   CODE     ---       _lcd_showuint16_simspi
*DEL*:00000000H   CODE     ---       _lcd_showuint8
*DEL*:00000000H   CODE     ---       _lcd_showuint8_simspi
*DEL*:00000000H   CODE     ---       _lcd_writeData
*DEL*:00000000H   CODE     ---       _lcd_writedata_16bit
*DEL*:00000000H   CODE     ---       _lcd_writeData_16bit_simspi
*DEL*:0000000FH   CODE     ---       _lcd_writeData_simspi
*DEL*:00000000H   CODE     ---       _lcd_writeIndex
*DEL*:00000000H   CODE     ---       _lcd_writeIndex_simspi
*DEL*:00000036H   CODE     ---       _number_conversion_ascii
*DEL*:00000000H   CODE     ---       _NVIC_SetPriority
*DEL*:00000000H   CODE     ---       _oled_clrpixel
*DEL*:00000000H   CODE     ---       _oled_clrpixel_spi
*DEL*:00000000H   CODE     ---       _oled_dis_bmp
*DEL*:00000000H   CODE     ---       _oled_dis_bmp_spi
*DEL*:00000000H   CODE     ---       _oled_fill
*DEL*:00000000H   CODE     ---       _oled_fill_spi
*DEL*:00000000H   CODE     ---       _oled_hexascii
*DEL*:00000000H   CODE     ---       _oled_hexascii_spi
*DEL*:00000000H   CODE     ---       _oled_int16
*DEL*:00000000H   CODE     ---       _oled_int16_spi
*DEL*:00000000H   CODE     ---       _oled_p6x8float
*DEL*:00000000H   CODE     ---       _oled_p6x8num
*DEL*:00000000H   CODE     ---       _oled_p6x8str
*DEL*:00000000H   CODE     ---       _oled_p6x8str_inv
*DEL*:00000000H   CODE     ---       _oled_p6x8str_spi
*DEL*:00000000H   CODE     ---       _oled_p8x16str
*DEL*:00000000H   CODE     ---       _oled_p8x16str_spi
*DEL*:00000000H   CODE     ---       _oled_print_chinese
*DEL*:00000000H   CODE     ---       _oled_print_chinese_spi
*DEL*:00000000H   CODE     ---       _oled_printf_float
*DEL*:00000000H   CODE     ---       _oled_printf_float_spi
*DEL*:00000000H   CODE     ---       _oled_printf_int32
*DEL*:00000000H   CODE     ---       _oled_printf_int32_spi
*DEL*:00000000H   CODE     ---       _oled_putpixel
*DEL*:00000000H   CODE     ---       _oled_putpixel_spi
*DEL*:00000005H   CODE     ---       _oled_set_pos
*DEL*:00000000H   CODE     ---       _oled_set_pos_spi
*DEL*:00000000H   CODE     ---       _oled_uint16
*DEL*:00000000H   CODE     ---       _oled_uint16_spi
*DEL*:00000008H   CODE     ---       _oled_wrcmd
*DEL*:00000009H   CODE     ---       _oled_wrcmd_spi
*DEL*:00000005H   CODE     ---       _oled_wrdat
*DEL*:00000005H   CODE     ---       _oled_wrdat_spi
*DEL*:00000000H   CODE     ---       _pit_timer_ms
*DEL*:0000006BH   CODE     ---       _PRINTF
*DEL*:00000011H   CODE     ---       _printf_reverse_order
*DEL*:00000000H   CODE     ---       _putchar
*DEL*:00000000H   CODE     ---       _pwm_duty
*DEL*:00000000H   CODE     ---       _pwm_freq
*DEL*:00000000H   CODE     ---       _pwm_init
*DEL*:00000000H   CODE     ---       _pwm_set_gpio
*DEL*:00000000H   CODE     ---       _read_ch
*DEL*:00000000H   CODE     ---       _seekfree_wireless_send_buff
*DEL*:00000004H   CODE     ---       _send_ch
*DEL*:00000004H   CODE     ---       _send_data
*DEL*:00000000H   CODE     ---       _set_zero_position_simspi
*DEL*:00000000H   CODE     ---       _set_zero_position_spi
*DEL*:00000000H   CODE     ---       _showimage
*DEL*:00000000H   CODE     ---       _simiic_read_reg
*DEL*:00000000H   CODE     ---       _simiic_read_regs
*DEL*:00000000H   CODE     ---       _simiic_sendack
*DEL*:00000000H   CODE     ---       _simiic_write_reg
*DEL*:00000000H   CODE     ---       _simspi_r_reg_byte
*DEL*:00000000H   CODE     ---       _simspi_w_reg_byte
LX51 LINKER/LOCATER V4.41                                                             05/12/2022  17:30:48  PAGE 17


*DEL*:00000004H   CODE     ---       _simspi_wr_byte
*DEL*:00000000H   CODE     ---       _spi_change_mode
*DEL*:00000000H   CODE     ---       _spi_change_pin
*DEL*:00000000H   CODE     ---       _spi_init
*DEL*:00000000H   CODE     ---       _spi_mosi
*DEL*:00000000H   CODE     ---       _spi_r_reg_byte
*DEL*:00000000H   CODE     ---       _spi_w_reg_byte
*DEL*:0000000EH   CODE     ---       _spi_wr_byte
*DEL*:00000065H   CODE     ---       _SPRINTF
*DEL*:00000000H   CODE     ---       _STRLEN
*DEL*:00000000H   CODE     ---       _strncmp
      010012E9H   CODE     ---       _uart_init
*DEL*:00000000H   CODE     ---       _uart_putbuff
*DEL*:0000000FH   CODE     ---       _uart_putchar
*DEL*:00000000H   CODE     ---       _uart_putstr
*DEL*:00000000H   CODE     ---       _wireless_ch573_send_buff
*DEL*:00000000H   CODE     ---       _zf_sprintf
*SFR* 000000D0H.6 DATA     BIT       AC
*SFR* 000000E0H   DATA     BYTE      ACC
*SFR* 000000BCH   DATA     BYTE      ADC_CONTR
*SFR* 000000BDH   DATA     BYTE      ADC_RES
*SFR* 000000BEH   DATA     BYTE      ADC_RESL
*SFR* 000000DEH   DATA     BYTE      ADCCFG
      020001F0H   XDATA    BYTE      at_mode
      020001F1H   XDATA    BYTE      at_mode_cmd_flag
      020001D2H   XDATA    ---       at_mode_data
      020001CFH   XDATA    BYTE      at_mode_num
*SFR* 000000EFH   DATA     BYTE      AUXINTIF
*SFR* 0000008EH   DATA     BYTE      AUXR
*SFR* 000000F0H   DATA     BYTE      B
*DEL*:00000000H   CODE     ---       bluetooth_ch9141_check_response
*DEL*:00000000H   CODE     ---       bluetooth_ch9141_enter_at_mode
*DEL*:00000000H   CODE     ---       bluetooth_ch9141_exit_at_mode
*DEL*:00000000H   CODE     ---       bluetooth_ch9141_get_mac_address
*DEL*:00000000H   CODE     ---       bluetooth_ch9141_get_rssi
*DEL*:00000000H   CODE     ---       bluetooth_ch9141_reset
      020001CEH   XDATA    BYTE      bluetooth_ch9141_rx_buffer
*DEL*:00000000H   CODE     ---       bluetooth_ch9141_uart_callback
      0100151CH   CODE     ---       board_init
      020001C9H   XDATA    ---       busy
      01001652H   CODE     ---       ccd_collect
      02000001H   XDATA    ---       ccd_data
*DEL*:00000000H   CODE     ---       ccd_init
*SFR* 000000E6H   DATA     BYTE      CMPCR1
*SFR* 000000E7H   DATA     BYTE      CMPCR2
*SFR* 000000D0H.7 DATA     BIT       CY
      01001596H   CODE     ---       delay_init
      0100181CH   CODE     ---       DisableGlobalIRQ
*SFR* 00000083H   DATA     BYTE      DPH
*SFR* 000000E5H   DATA     BYTE      DPH1
*SFR* 00000082H   DATA     BYTE      DPL
*SFR* 000000E4H   DATA     BYTE      DPL1
*SFR* 000000E3H   DATA     BYTE      DPS
*SFR* 000000A8H.7 DATA     BIT       EA
*SFR* 000000A8H.5 DATA     BIT       EADC
*SFR* 000000A8H.6 DATA     BIT       ELVD
      0100181FH   CODE     ---       EnableGlobalIRQ
*DEL*:00000000H   CODE     ---       encoder_angle_simspi
*DEL*:00000000H   CODE     ---       encoder_angle_spi
*DEL*:00000000H   CODE     ---       encoder_init_simspi
*DEL*:00000000H   CODE     ---       encoder_init_spi
*DEL*:00000000H   CODE     ---       encoder_self4_check
*DEL*:00000000H   CODE     ---       encoder_self5_check
*SFR* 000000A8H.4 DATA     BIT       ES
*SFR* 000000A8H.1 DATA     BIT       ET0
LX51 LINKER/LOCATER V4.41                                                             05/12/2022  17:30:48  PAGE 18


*SFR* 000000A8H.3 DATA     BIT       ET1
*SFR* 000000A8H   DATA     BIT       EX0
*SFR* 000000A8H.2 DATA     BIT       EX1
*SFR* 000000D0H.5 DATA     BIT       F0
*DEL*:00000000H   CODE     ---       get_clk
*DEL*:00000000H   CODE     ---       get_icm20602_accdata_simiic
*DEL*:00000000H   CODE     ---       get_icm20602_accdata_simspi
*DEL*:00000000H   CODE     ---       get_icm20602_accdata_spi
*DEL*:00000000H   CODE     ---       get_icm20602_gyro_simiic
*DEL*:00000000H   CODE     ---       get_icm20602_gyro_simspi
*DEL*:00000000H   CODE     ---       get_icm20602_gyro_spi
*SFR* 000000C3H   DATA     BYTE      IAP_ADDRH
*SFR* 000000C4H   DATA     BYTE      IAP_ADDRL
*SFR* 000000C5H   DATA     BYTE      IAP_CMD
*SFR* 000000C7H   DATA     BYTE      IAP_CONTR
*SFR* 000000C2H   DATA     BYTE      IAP_DATA
*DEL*:00000000H   CODE     ---       iap_get_cmd_state
*DEL*:00000000H   CODE     ---       iap_idle
*DEL*:00000000H   CODE     ---       iap_init
*DEL*:00000000H   CODE     ---       iap_set_tps
*SFR* 000000F5H   DATA     BYTE      IAP_TPS
*SFR* 000000C6H   DATA     BYTE      IAP_TRIG
*DEL*:00000000H   CODE     ---       icm20602_init_simiic
*DEL*:00000000H   CODE     ---       icm20602_init_simspi
*DEL*:00000000H   CODE     ---       icm20602_init_spi
*DEL*:00000000H   CODE     ---       icm20602_self1_check
*DEL*:00000000H   CODE     ---       icm20602_self3_check
*DEL*:00000000H   CODE     ---       icm20602_self4_check
      02000203H   XDATA    INT       icm_acc_x
      02000205H   XDATA    INT       icm_acc_y
      02000207H   XDATA    INT       icm_acc_z
      02000209H   XDATA    INT       icm_gyro_x
      0200020BH   XDATA    INT       icm_gyro_y
      0200020DH   XDATA    INT       icm_gyro_z
*SFR* 000000A8H   DATA     BYTE      IE
*SFR* 00000088H.1 DATA     BIT       IE0
*SFR* 00000088H.3 DATA     BIT       IE1
*SFR* 000000AFH   DATA     BYTE      IE2
      0200022EH   XDATA    BYTE      IIC_ad_main
      02000230H   XDATA    BYTE      IIC_ad_sub
      02000231H   XDATA    ---       IIC_buf
      0200022FH   XDATA    BYTE      IIC_num
      01001822H   CODE     ---       INT0_Isr
      01001823H   CODE     ---       INT1_Isr
      01001808H   CODE     ---       INT2_Isr
      0100180CH   CODE     ---       INT3_Isr
      01001810H   CODE     ---       INT4_Isr
*SFR* 0000008FH   DATA     BYTE      INTCLKO
*SFR* 000000B8H   DATA     BYTE      IP
*SFR* 000000B5H   DATA     BYTE      IP2
*SFR* 000000B6H   DATA     BYTE      IP2H
*SFR* 000000DFH   DATA     BYTE      IP3
*SFR* 000000EEH   DATA     BYTE      IP3H
*SFR* 000000B7H   DATA     BYTE      IPH
*DEL*:00000000H   CODE     ---       ips114_init
*DEL*:00000000H   CODE     ---       ips114_init_simspi
*SFR* 0000009DH   DATA     BYTE      IRCBAND
*SFR* 0000009FH   DATA     BYTE      IRTRIM
*SFR* 00000088H   DATA     BIT       IT0
*SFR* 00000088H.2 DATA     BIT       IT1
*DEL*:00000000H   CODE     ---       lcd_init
*DEL*:00000000H   CODE     ---       lcd_init_simspi
*SFR* 0000009EH   DATA     BYTE      LIRTRIM
      020001F2H   XDATA    ---       mac_address
      010017AFH   CODE     ---       main
LX51 LINKER/LOCATER V4.41                                                             05/12/2022  17:30:48  PAGE 19


*DEL*:00000000H   CODE     ---       mpu6050_get_accdata
*DEL*:00000000H   CODE     ---       mpu6050_get_gyro
*DEL*:00000000H   CODE     ---       mpu6050_init
*DEL*:00000000H   CODE     ---       mpu6050_self1_check
      0200020FH   XDATA    INT       mpu_acc_x
      02000211H   XDATA    INT       mpu_acc_y
      02000213H   XDATA    INT       mpu_acc_z
      02000215H   XDATA    INT       mpu_gyro_x
      02000217H   XDATA    INT       mpu_gyro_y
      02000219H   XDATA    INT       mpu_gyro_z
*DEL*:000005F0H   CONST    ---       oled_6x8
*DEL*:00000818H   CONST    ---       oled_8x16
*DEL*:00000000H   CODE     ---       oled_cls
*DEL*:00000000H   CODE     ---       oled_init
*DEL*:00000000H   CODE     ---       oled_init_spi
*SFR* 000000D0H.2 DATA     BIT       OV
*SFR* 000000D0H   DATA     BIT       P
*SFR* 00000080H   DATA     BYTE      P0
*SFR* 00000080H   DATA     BIT       P00
*SFR* 00000080H.1 DATA     BIT       P01
*SFR* 00000080H.2 DATA     BIT       P02
*SFR* 00000080H.3 DATA     BIT       P03
*SFR* 00000080H.4 DATA     BIT       P04
*SFR* 00000080H.5 DATA     BIT       P05
*SFR* 00000080H.6 DATA     BIT       P06
*SFR* 00000080H.7 DATA     BIT       P07
*SFR* 00000094H   DATA     BYTE      P0M0
*SFR* 00000093H   DATA     BYTE      P0M1
*SFR* 00000090H   DATA     BYTE      P1
*SFR* 00000090H   DATA     BIT       P10
*SFR* 00000090H.1 DATA     BIT       P11
*SFR* 00000090H.2 DATA     BIT       P12
*SFR* 00000090H.3 DATA     BIT       P13
*SFR* 00000090H.4 DATA     BIT       P14
*SFR* 00000090H.5 DATA     BIT       P15
*SFR* 00000090H.6 DATA     BIT       P16
*SFR* 00000090H.7 DATA     BIT       P17
*SFR* 00000092H   DATA     BYTE      P1M0
*SFR* 00000091H   DATA     BYTE      P1M1
*SFR* 000000A0H   DATA     BYTE      P2
*SFR* 000000A0H   DATA     BIT       P20
*SFR* 000000A0H.1 DATA     BIT       P21
*SFR* 000000A0H.2 DATA     BIT       P22
*SFR* 000000A0H.3 DATA     BIT       P23
*SFR* 000000A0H.4 DATA     BIT       P24
*SFR* 000000A0H.5 DATA     BIT       P25
*SFR* 000000A0H.6 DATA     BIT       P26
*SFR* 000000A0H.7 DATA     BIT       P27
*SFR* 00000096H   DATA     BYTE      P2M0
*SFR* 00000095H   DATA     BYTE      P2M1
*SFR* 000000B0H   DATA     BYTE      P3
*SFR* 000000B0H   DATA     BIT       P30
*SFR* 000000B0H.1 DATA     BIT       P31
*SFR* 000000B0H.2 DATA     BIT       P32
*SFR* 000000B0H.3 DATA     BIT       P33
*SFR* 000000B0H.4 DATA     BIT       P34
*SFR* 000000B0H.5 DATA     BIT       P35
*SFR* 000000B0H.6 DATA     BIT       P36
*SFR* 000000B0H.7 DATA     BIT       P37
*SFR* 000000B2H   DATA     BYTE      P3M0
*SFR* 000000B1H   DATA     BYTE      P3M1
*SFR* 000000C0H   DATA     BYTE      P4
*SFR* 000000C0H   DATA     BIT       P40
*SFR* 000000C0H.1 DATA     BIT       P41
*SFR* 000000C0H.2 DATA     BIT       P42
LX51 LINKER/LOCATER V4.41                                                             05/12/2022  17:30:48  PAGE 20


*SFR* 000000C0H.3 DATA     BIT       P43
*SFR* 000000C0H.4 DATA     BIT       P44
*SFR* 000000C0H.5 DATA     BIT       P45
*SFR* 000000C0H.6 DATA     BIT       P46
*SFR* 000000C0H.7 DATA     BIT       P47
*SFR* 000000B4H   DATA     BYTE      P4M0
*SFR* 000000B3H   DATA     BYTE      P4M1
*SFR* 000000C8H   DATA     BYTE      P5
*SFR* 000000C8H   DATA     BIT       P50
*SFR* 000000C8H.1 DATA     BIT       P51
*SFR* 000000C8H.2 DATA     BIT       P52
*SFR* 000000C8H.3 DATA     BIT       P53
*SFR* 000000C8H.4 DATA     BIT       P54
*SFR* 000000C8H.5 DATA     BIT       P55
*SFR* 000000C8H.6 DATA     BIT       P56
*SFR* 000000C8H.7 DATA     BIT       P57
*SFR* 000000CAH   DATA     BYTE      P5M0
*SFR* 000000C9H   DATA     BYTE      P5M1
*SFR* 000000E8H   DATA     BYTE      P6
*SFR* 000000E8H   DATA     BIT       P60
*SFR* 000000E8H.1 DATA     BIT       P61
*SFR* 000000E8H.2 DATA     BIT       P62
*SFR* 000000E8H.3 DATA     BIT       P63
*SFR* 000000E8H.4 DATA     BIT       P64
*SFR* 000000E8H.5 DATA     BIT       P65
*SFR* 000000E8H.6 DATA     BIT       P66
*SFR* 000000E8H.7 DATA     BIT       P67
*SFR* 000000CCH   DATA     BYTE      P6M0
*SFR* 000000CBH   DATA     BYTE      P6M1
*SFR* 000000F8H   DATA     BYTE      P7
*SFR* 000000F8H   DATA     BIT       P70
*SFR* 000000F8H.1 DATA     BIT       P71
*SFR* 000000F8H.2 DATA     BIT       P72
*SFR* 000000F8H.3 DATA     BIT       P73
*SFR* 000000F8H.4 DATA     BIT       P74
*SFR* 000000F8H.5 DATA     BIT       P75
*SFR* 000000F8H.6 DATA     BIT       P76
*SFR* 000000F8H.7 DATA     BIT       P77
*SFR* 000000E2H   DATA     BYTE      P7M0
*SFR* 000000E1H   DATA     BYTE      P7M1
*SFR* 000000A2H   DATA     BYTE      P_SW1
*SFR* 000000BAH   DATA     BYTE      P_SW2
*SFR* 000000B8H.5 DATA     BIT       PADC
*SFR* 00000087H   DATA     BYTE      PCON
*SFR* 000000B8H.6 DATA     BIT       PLVD
*SFR* 000000B8H.7 DATA     BIT       PPCA
*SFR* 000000B8H.4 DATA     BIT       PS
*SFR* 000000D0H   DATA     BYTE      PSW
*SFR* 000000B8H.1 DATA     BIT       PT0
*SFR* 000000B8H.3 DATA     BIT       PT1
*SFR* 000000B8H   DATA     BIT       PX0
*SFR* 000000B8H.2 DATA     BIT       PX1
*SFR* 00000098H.2 DATA     BIT       RB8
*DEL*:00000000H   CODE     ---       recv_ack
*DEL*:00000000H   CODE     ---       recv_data
*SFR* 00000098H.4 DATA     BIT       REN
*SFR* 00000098H   DATA     BIT       RI
*SFR* 000000D0H.3 DATA     BIT       RS0
*SFR* 000000D0H.4 DATA     BIT       RS1
*SFR* 000000FFH   DATA     BYTE      RSTCFG
*SFR* 0000009BH   DATA     BYTE      S2BUF
*SFR* 0000009AH   DATA     BYTE      S2CON
*SFR* 000000ADH   DATA     BYTE      S3BUF
*SFR* 000000ACH   DATA     BYTE      S3CON
*SFR* 00000085H   DATA     BYTE      S4BUF
LX51 LINKER/LOCATER V4.41                                                             05/12/2022  17:30:48  PAGE 21


*SFR* 00000084H   DATA     BYTE      S4CON
*SFR* 000000A9H   DATA     BYTE      SADDR
*SFR* 000000B9H   DATA     BYTE      SADEN
*SFR* 00000099H   DATA     BYTE      SBUF
*SFR* 00000098H   DATA     BYTE      SCON
*DEL*:00000000H   CODE     ---       seekfree_wireless_init
*DEL*:0000000FH   CODE     ---       send_ack
*DEL*:00000000H   CODE     ---       send_nak
*DEL*:00000007H   CODE     ---       simiic_delay
*DEL*:00000000H   CODE     ---       simiic_init
*DEL*:00000000H   CODE     ---       simiic_start
*DEL*:00000000H   CODE     ---       simiic_stop
*SFR* 00000098H.7 DATA     BIT       SM0
*SFR* 00000098H.6 DATA     BIT       SM1
*SFR* 00000098H.5 DATA     BIT       SM2
*SFR* 00000081H   DATA     BYTE      SP
*SFR* 000000CEH   DATA     BYTE      SPCTL
*SFR* 000000CFH   DATA     BYTE      SPDAT
*SFR* 000000CDH   DATA     BYTE      SPSTAT
*DEL*:0000000EH   CODE     ---       start
*DEL*:00000000H   CODE     ---       stop
      02000234H   XDATA    DWORD     sys_clk
*SFR* 000000D6H   DATA     BYTE      T2H
*SFR* 000000D7H   DATA     BYTE      T2L
*SFR* 000000D4H   DATA     BYTE      T3H
*SFR* 000000D5H   DATA     BYTE      T3L
*SFR* 000000D2H   DATA     BYTE      T4H
*SFR* 000000D3H   DATA     BYTE      T4L
*SFR* 000000D1H   DATA     BYTE      T4T3M
*SFR* 000000AEH   DATA     BYTE      TA
*SFR* 00000098H.3 DATA     BIT       TB8
*SFR* 00000088H   DATA     BYTE      TCON
*SFR* 00000088H.5 DATA     BIT       TF0
*SFR* 00000088H.7 DATA     BIT       TF1
*DEL*:00000000H   CONST    ---       tft_ascii
*SFR* 0000008CH   DATA     BYTE      TH0
*SFR* 0000008DH   DATA     BYTE      TH1
*SFR* 00000098H.1 DATA     BIT       TI
*SFR* 0000008AH   DATA     BYTE      TL0
*SFR* 0000008BH   DATA     BYTE      TL1
      01001824H   CODE     ---       TM0_Isr
      01001825H   CODE     ---       TM1_Isr
      01001814H   CODE     ---       TM2_Isr
      01001818H   CODE     ---       TM3_Isr
      010016DAH   CODE     ---       TM4_Isr
*SFR* 00000089H   DATA     BYTE      TMOD
*SFR* 00000088H.4 DATA     BIT       TR0
*SFR* 00000088H.6 DATA     BIT       TR1
      02000000H   XDATA    BYTE      tsl1401_finish_flag
      01001608H   CODE     ---       UART1_Isr
      02000101H   XDATA    ---       uart1_rx_buff
      02000165H   XDATA    ---       uart1_tx_buff
      01001749H   CODE     ---       UART2_Isr
      0100176BH   CODE     ---       UART3_Isr
      0100178DH   CODE     ---       UART4_Isr
      020001D0H   XDATA    BYTE      uart_data
      020001D1H   XDATA    BYTE      uart_flag
*SFR* 000000FCH   DATA     BYTE      USBADR
*SFR* 000000DCH   DATA     BYTE      USBCLK
*SFR* 000000F4H   DATA     BYTE      USBCON
*SFR* 000000ECH   DATA     BYTE      USBDAT
      0200021BH   XDATA    ---       virtual_scope_data
*DEL*:00000004H   CODE     ---       wait
*SFR* 000000C1H   DATA     BYTE      WDT_CONTR
*DEL*:00000000H   CODE     ---       wireless_ch573_callback
LX51 LINKER/LOCATER V4.41                                                             05/12/2022  17:30:48  PAGE 22


*DEL*:00000000H   CODE     ---       wireless_ch573_init
      0200023CH   XDATA    BYTE      wireless_type
*DEL*:00000000H   CODE     ---       wireless_uart_callback
*SFR* 000000ABH   DATA     BYTE      WKTCH
*SFR* 000000AAH   DATA     BYTE      WKTCL
      02000238H   XDATA    WORD      zf_delay_ms
      0200023AH   XDATA    WORD      zf_delay_us



SYMBOL TABLE OF MODULE:  .\Out_File\SEEKFREE (COMMON)

      VALUE       REP       CLASS    TYPE      SYMBOL NAME
      ====================================================
      ---         MODULE    ---      ---       COMMON
      0200023CH   PUBLIC    XDATA    BYTE      wireless_type
      00000093H   SFRSYM    DATA     BYTE      P0M1
      00000092H   SFRSYM    DATA     BYTE      P1M0
      00000096H   SFRSYM    DATA     BYTE      P2M0
      00000091H   SFRSYM    DATA     BYTE      P1M1
      00000080H   SFRSYM    DATA     BYTE      P0
      000000B2H   SFRSYM    DATA     BYTE      P3M0
      00000095H   SFRSYM    DATA     BYTE      P2M1
      00000090H   SFRSYM    DATA     BYTE      P1
      000000B4H   SFRSYM    DATA     BYTE      P4M0
      000000B1H   SFRSYM    DATA     BYTE      P3M1
      000000A0H   SFRSYM    DATA     BYTE      P2
      000000CAH   SFRSYM    DATA     BYTE      P5M0
      000000B3H   SFRSYM    DATA     BYTE      P4M1
      000000B0H   SFRSYM    DATA     BYTE      P3
      000000ABH   SFRSYM    DATA     BYTE      WKTCH
      000000D0H.6 SFRSYM    DATA     BIT       AC
      000000CCH   SFRSYM    DATA     BYTE      P6M0
      000000C9H   SFRSYM    DATA     BYTE      P5M1
      000000C0H   SFRSYM    DATA     BYTE      P4
      000000E2H   SFRSYM    DATA     BYTE      P7M0
      000000CBH   SFRSYM    DATA     BYTE      P6M1
      000000C8H   SFRSYM    DATA     BYTE      P5
      000000E8H   SFRSYM    DATA     BYTE      P6
      000000E1H   SFRSYM    DATA     BYTE      P7M1
      000000A8H.7 SFRSYM    DATA     BIT       EA
      000000F8H   SFRSYM    DATA     BYTE      P7
      000000AAH   SFRSYM    DATA     BYTE      WKTCL
      000000CEH   SFRSYM    DATA     BYTE      SPCTL
      000000A2H   SFRSYM    DATA     BYTE      P_SW1
      000000BAH   SFRSYM    DATA     BYTE      P_SW2
      000000E5H   SFRSYM    DATA     BYTE      DPH1
      000000A8H.5 SFRSYM    DATA     BIT       EADC
      000000A8H   SFRSYM    DATA     BYTE      IE
      000000C5H   SFRSYM    DATA     BYTE      IAP_CMD
      000000E4H   SFRSYM    DATA     BYTE      DPL1
      000000BDH   SFRSYM    DATA     BYTE      ADC_RES
      000000B6H   SFRSYM    DATA     BYTE      IP2H
      000000EEH   SFRSYM    DATA     BYTE      IP3H
      000000AEH   SFRSYM    DATA     BYTE      TA
      0000008FH   SFRSYM    DATA     BYTE      INTCLKO
      000000A8H.4 SFRSYM    DATA     BIT       ES
      000000B8H.5 SFRSYM    DATA     BIT       PADC
      000000B8H   SFRSYM    DATA     BYTE      IP
      000000DEH   SFRSYM    DATA     BYTE      ADCCFG
      00000098H   SFRSYM    DATA     BIT       RI
      000000D0H.7 SFRSYM    DATA     BIT       CY
      00000098H.1 SFRSYM    DATA     BIT       TI
      000000C3H   SFRSYM    DATA     BYTE      IAP_ADDRH
      000000B8H.4 SFRSYM    DATA     BIT       PS
LX51 LINKER/LOCATER V4.41                                                             05/12/2022  17:30:48  PAGE 23


      00000081H   SFRSYM    DATA     BYTE      SP
      000000C4H   SFRSYM    DATA     BYTE      IAP_ADDRL
      000000D0H.2 SFRSYM    DATA     BIT       OV
      000000B8H.7 SFRSYM    DATA     BIT       PPCA
      0000009EH   SFRSYM    DATA     BYTE      LIRTRIM
      000000E6H   SFRSYM    DATA     BYTE      CMPCR1
      000000E7H   SFRSYM    DATA     BYTE      CMPCR2
      000000A8H.6 SFRSYM    DATA     BIT       ELVD
      00000080H   SFRSYM    DATA     BIT       P00
      000000BCH   SFRSYM    DATA     BYTE      ADC_CONTR
      00000099H   SFRSYM    DATA     BYTE      SBUF
      00000090H   SFRSYM    DATA     BIT       P10
      00000087H   SFRSYM    DATA     BYTE      PCON
      00000080H.1 SFRSYM    DATA     BIT       P01
      000000A0H   SFRSYM    DATA     BIT       P20
      00000090H.1 SFRSYM    DATA     BIT       P11
      00000080H.2 SFRSYM    DATA     BIT       P02
      000000F5H   SFRSYM    DATA     BYTE      IAP_TPS
      000000B0H   SFRSYM    DATA     BIT       P30
      000000A0H.1 SFRSYM    DATA     BIT       P21
      00000090H.2 SFRSYM    DATA     BIT       P12
      00000080H.3 SFRSYM    DATA     BIT       P03
      000000C0H   SFRSYM    DATA     BIT       P40
      000000B0H.1 SFRSYM    DATA     BIT       P31
      000000A0H.2 SFRSYM    DATA     BIT       P22
      00000098H   SFRSYM    DATA     BYTE      SCON
      00000090H.3 SFRSYM    DATA     BIT       P13
      00000080H.4 SFRSYM    DATA     BIT       P04
      000000C8H   SFRSYM    DATA     BIT       P50
      000000C0H.1 SFRSYM    DATA     BIT       P41
      000000B0H.2 SFRSYM    DATA     BIT       P32
      000000A0H.3 SFRSYM    DATA     BIT       P23
      00000090H.4 SFRSYM    DATA     BIT       P14
      00000089H   SFRSYM    DATA     BYTE      TMOD
      00000088H   SFRSYM    DATA     BYTE      TCON
      00000080H.5 SFRSYM    DATA     BIT       P05
      000000E8H   SFRSYM    DATA     BIT       P60
      000000C8H.1 SFRSYM    DATA     BIT       P51
      000000C0H.2 SFRSYM    DATA     BIT       P42
      000000B0H.3 SFRSYM    DATA     BIT       P33
      000000A0H.4 SFRSYM    DATA     BIT       P24
      00000090H.5 SFRSYM    DATA     BIT       P15
      00000080H.6 SFRSYM    DATA     BIT       P06
      000000F8H   SFRSYM    DATA     BIT       P70
      000000E8H.1 SFRSYM    DATA     BIT       P61
      000000C8H.2 SFRSYM    DATA     BIT       P52
      000000C0H.3 SFRSYM    DATA     BIT       P43
      000000B8H.6 SFRSYM    DATA     BIT       PLVD
      000000B0H.4 SFRSYM    DATA     BIT       P34
      000000A0H.5 SFRSYM    DATA     BIT       P25
      00000090H.6 SFRSYM    DATA     BIT       P16
      00000080H.7 SFRSYM    DATA     BIT       P07
      000000F8H.1 SFRSYM    DATA     BIT       P71
      000000E8H.2 SFRSYM    DATA     BIT       P62
      000000C8H.3 SFRSYM    DATA     BIT       P53
      000000C0H.4 SFRSYM    DATA     BIT       P44
      000000B0H.5 SFRSYM    DATA     BIT       P35
      000000A0H.6 SFRSYM    DATA     BIT       P26
      00000090H.7 SFRSYM    DATA     BIT       P17
      000000F8H.2 SFRSYM    DATA     BIT       P72
      000000E8H.3 SFRSYM    DATA     BIT       P63
      000000C8H.4 SFRSYM    DATA     BIT       P54
      000000C0H.5 SFRSYM    DATA     BIT       P45
      000000B0H.6 SFRSYM    DATA     BIT       P36
      000000A0H.7 SFRSYM    DATA     BIT       P27
LX51 LINKER/LOCATER V4.41                                                             05/12/2022  17:30:48  PAGE 24


      000000F8H.3 SFRSYM    DATA     BIT       P73
      000000E8H.4 SFRSYM    DATA     BIT       P64
      000000C8H.5 SFRSYM    DATA     BIT       P55
      000000C0H.6 SFRSYM    DATA     BIT       P46
      000000B0H.7 SFRSYM    DATA     BIT       P37
      000000F8H.4 SFRSYM    DATA     BIT       P74
      000000E8H.5 SFRSYM    DATA     BIT       P65
      000000C8H.6 SFRSYM    DATA     BIT       P56
      000000C0H.7 SFRSYM    DATA     BIT       P47
      000000F8H.5 SFRSYM    DATA     BIT       P75
      000000E8H.6 SFRSYM    DATA     BIT       P66
      000000C8H.7 SFRSYM    DATA     BIT       P57
      000000F8H.6 SFRSYM    DATA     BIT       P76
      000000E8H.7 SFRSYM    DATA     BIT       P67
      000000F8H.7 SFRSYM    DATA     BIT       P77
      00000088H.1 SFRSYM    DATA     BIT       IE0
      00000088H.3 SFRSYM    DATA     BIT       IE1
      000000AFH   SFRSYM    DATA     BYTE      IE2
      000000F0H   SFRSYM    DATA     BYTE      B
      0000008EH   SFRSYM    DATA     BYTE      AUXR
      000000FCH   SFRSYM    DATA     BYTE      USBADR
      000000C7H   SFRSYM    DATA     BYTE      IAP_CONTR
      000000ECH   SFRSYM    DATA     BYTE      USBDAT
      000000DCH   SFRSYM    DATA     BYTE      USBCLK
      000000E0H   SFRSYM    DATA     BYTE      ACC
      000000A8H.1 SFRSYM    DATA     BIT       ET0
      000000A8H.3 SFRSYM    DATA     BIT       ET1
      00000088H.5 SFRSYM    DATA     BIT       TF0
      000000FFH   SFRSYM    DATA     BYTE      RSTCFG
      000000B5H   SFRSYM    DATA     BYTE      IP2
      00000088H.7 SFRSYM    DATA     BIT       TF1
      000000F4H   SFRSYM    DATA     BYTE      USBCON
      000000DFH   SFRSYM    DATA     BYTE      IP3
      00000098H.2 SFRSYM    DATA     BIT       RB8
      0000008CH   SFRSYM    DATA     BYTE      TH0
      000000A8H   SFRSYM    DATA     BIT       EX0
      0000008DH   SFRSYM    DATA     BYTE      TH1
      00000088H   SFRSYM    DATA     BIT       IT0
      000000D6H   SFRSYM    DATA     BYTE      T2H
      000000A8H.2 SFRSYM    DATA     BIT       EX1
      00000098H.3 SFRSYM    DATA     BIT       TB8
      00000088H.2 SFRSYM    DATA     BIT       IT1
      000000D4H   SFRSYM    DATA     BYTE      T3H
      000000D0H   SFRSYM    DATA     BIT       P
      000000D2H   SFRSYM    DATA     BYTE      T4H
      00000098H.7 SFRSYM    DATA     BIT       SM0
      0000008AH   SFRSYM    DATA     BYTE      TL0
      00000098H.6 SFRSYM    DATA     BIT       SM1
      0000008BH   SFRSYM    DATA     BYTE      TL1
      000000D7H   SFRSYM    DATA     BYTE      T2L
      00000098H.5 SFRSYM    DATA     BIT       SM2
      000000D5H   SFRSYM    DATA     BYTE      T3L
      000000D3H   SFRSYM    DATA     BYTE      T4L
      000000B8H.1 SFRSYM    DATA     BIT       PT0
      000000D0H.3 SFRSYM    DATA     BIT       RS0
      000000B8H.3 SFRSYM    DATA     BIT       PT1
      000000D0H.4 SFRSYM    DATA     BIT       RS1
      000000C2H   SFRSYM    DATA     BYTE      IAP_DATA
      00000088H.4 SFRSYM    DATA     BIT       TR0
      00000088H.6 SFRSYM    DATA     BIT       TR1
      000000C1H   SFRSYM    DATA     BYTE      WDT_CONTR
      000000B8H   SFRSYM    DATA     BIT       PX0
      000000B8H.2 SFRSYM    DATA     BIT       PX1
      0000009FH   SFRSYM    DATA     BYTE      IRTRIM
      00000083H   SFRSYM    DATA     BYTE      DPH
LX51 LINKER/LOCATER V4.41                                                             05/12/2022  17:30:48  PAGE 25


      000000D1H   SFRSYM    DATA     BYTE      T4T3M
      000000BEH   SFRSYM    DATA     BYTE      ADC_RESL
      00000082H   SFRSYM    DATA     BYTE      DPL
      000000CDH   SFRSYM    DATA     BYTE      SPSTAT
      000000B7H   SFRSYM    DATA     BYTE      IPH
      0000009BH   SFRSYM    DATA     BYTE      S2BUF
      000000ADH   SFRSYM    DATA     BYTE      S3BUF
      00000098H.4 SFRSYM    DATA     BIT       REN
      00000085H   SFRSYM    DATA     BYTE      S4BUF
      0000009AH   SFRSYM    DATA     BYTE      S2CON
      000000E3H   SFRSYM    DATA     BYTE      DPS
      000000ACH   SFRSYM    DATA     BYTE      S3CON
      00000084H   SFRSYM    DATA     BYTE      S4CON
      000000EFH   SFRSYM    DATA     BYTE      AUXINTIF
      000000B9H   SFRSYM    DATA     BYTE      SADEN
      000000A9H   SFRSYM    DATA     BYTE      SADDR
      000000C6H   SFRSYM    DATA     BYTE      IAP_TRIG
      000000D0H.5 SFRSYM    DATA     BIT       F0
      0000009DH   SFRSYM    DATA     BYTE      IRCBAND
      000000D0H   SFRSYM    DATA     BYTE      PSW
      000000CFH   SFRSYM    DATA     BYTE      SPDAT
      00000094H   SFRSYM    DATA     BYTE      P0M0

      ---         MODULE    ---      ---       BOARD
      02000234H   PUBLIC    XDATA    DWORD     sys_clk
      0100181FH   PUBLIC    CODE     ---       EnableGlobalIRQ
      0100181CH   PUBLIC    CODE     ---       DisableGlobalIRQ
      0100151CH   PUBLIC    CODE     ---       board_init
      00000093H   SFRSYM    DATA     BYTE      P0M1
      00000092H   SFRSYM    DATA     BYTE      P1M0
      00000096H   SFRSYM    DATA     BYTE      P2M0
      00000091H   SFRSYM    DATA     BYTE      P1M1
      00000080H   SFRSYM    DATA     BYTE      P0
      000000B2H   SFRSYM    DATA     BYTE      P3M0
      00000095H   SFRSYM    DATA     BYTE      P2M1
      00000090H   SFRSYM    DATA     BYTE      P1
      000000B4H   SFRSYM    DATA     BYTE      P4M0
      000000B1H   SFRSYM    DATA     BYTE      P3M1
      000000A0H   SFRSYM    DATA     BYTE      P2
      000000CAH   SFRSYM    DATA     BYTE      P5M0
      000000B3H   SFRSYM    DATA     BYTE      P4M1
      000000B0H   SFRSYM    DATA     BYTE      P3
      000000ABH   SFRSYM    DATA     BYTE      WKTCH
      000000D0H.6 SFRSYM    DATA     BIT       AC
      000000CCH   SFRSYM    DATA     BYTE      P6M0
      000000C9H   SFRSYM    DATA     BYTE      P5M1
      000000C0H   SFRSYM    DATA     BYTE      P4
      000000E2H   SFRSYM    DATA     BYTE      P7M0
      000000CBH   SFRSYM    DATA     BYTE      P6M1
      000000C8H   SFRSYM    DATA     BYTE      P5
      000000E8H   SFRSYM    DATA     BYTE      P6
      000000E1H   SFRSYM    DATA     BYTE      P7M1
      000000A8H.7 SFRSYM    DATA     BIT       EA
      000000F8H   SFRSYM    DATA     BYTE      P7
      000000AAH   SFRSYM    DATA     BYTE      WKTCL
      000000CEH   SFRSYM    DATA     BYTE      SPCTL
      000000A2H   SFRSYM    DATA     BYTE      P_SW1
      000000BAH   SFRSYM    DATA     BYTE      P_SW2
      000000E5H   SFRSYM    DATA     BYTE      DPH1
      000000A8H.5 SFRSYM    DATA     BIT       EADC
      000000A8H   SFRSYM    DATA     BYTE      IE
      000000C5H   SFRSYM    DATA     BYTE      IAP_CMD
      000000E4H   SFRSYM    DATA     BYTE      DPL1
      000000BDH   SFRSYM    DATA     BYTE      ADC_RES
      000000B6H   SFRSYM    DATA     BYTE      IP2H
LX51 LINKER/LOCATER V4.41                                                             05/12/2022  17:30:48  PAGE 26


      000000EEH   SFRSYM    DATA     BYTE      IP3H
      000000AEH   SFRSYM    DATA     BYTE      TA
      0000008FH   SFRSYM    DATA     BYTE      INTCLKO
      000000A8H.4 SFRSYM    DATA     BIT       ES
      000000B8H.5 SFRSYM    DATA     BIT       PADC
      000000B8H   SFRSYM    DATA     BYTE      IP
      000000DEH   SFRSYM    DATA     BYTE      ADCCFG
      00000098H   SFRSYM    DATA     BIT       RI
      000000D0H.7 SFRSYM    DATA     BIT       CY
      00000098H.1 SFRSYM    DATA     BIT       TI
      000000C3H   SFRSYM    DATA     BYTE      IAP_ADDRH
      000000B8H.4 SFRSYM    DATA     BIT       PS
      00000081H   SFRSYM    DATA     BYTE      SP
      000000C4H   SFRSYM    DATA     BYTE      IAP_ADDRL
      000000D0H.2 SFRSYM    DATA     BIT       OV
      000000B8H.7 SFRSYM    DATA     BIT       PPCA
      0000009EH   SFRSYM    DATA     BYTE      LIRTRIM
      000000E6H   SFRSYM    DATA     BYTE      CMPCR1
      000000E7H   SFRSYM    DATA     BYTE      CMPCR2
      000000A8H.6 SFRSYM    DATA     BIT       ELVD
      00000080H   SFRSYM    DATA     BIT       P00
      000000BCH   SFRSYM    DATA     BYTE      ADC_CONTR
      00000099H   SFRSYM    DATA     BYTE      SBUF
      00000090H   SFRSYM    DATA     BIT       P10
      00000087H   SFRSYM    DATA     BYTE      PCON
      00000080H.1 SFRSYM    DATA     BIT       P01
      000000A0H   SFRSYM    DATA     BIT       P20
      00000090H.1 SFRSYM    DATA     BIT       P11
      00000080H.2 SFRSYM    DATA     BIT       P02
      000000F5H   SFRSYM    DATA     BYTE      IAP_TPS
      000000B0H   SFRSYM    DATA     BIT       P30
      000000A0H.1 SFRSYM    DATA     BIT       P21
      00000090H.2 SFRSYM    DATA     BIT       P12
      00000080H.3 SFRSYM    DATA     BIT       P03
      000000C0H   SFRSYM    DATA     BIT       P40
      000000B0H.1 SFRSYM    DATA     BIT       P31
      000000A0H.2 SFRSYM    DATA     BIT       P22
      00000098H   SFRSYM    DATA     BYTE      SCON
      00000090H.3 SFRSYM    DATA     BIT       P13
      00000080H.4 SFRSYM    DATA     BIT       P04
      000000C8H   SFRSYM    DATA     BIT       P50
      000000C0H.1 SFRSYM    DATA     BIT       P41
      000000B0H.2 SFRSYM    DATA     BIT       P32
      000000A0H.3 SFRSYM    DATA     BIT       P23
      00000090H.4 SFRSYM    DATA     BIT       P14
      00000089H   SFRSYM    DATA     BYTE      TMOD
      00000088H   SFRSYM    DATA     BYTE      TCON
      00000080H.5 SFRSYM    DATA     BIT       P05
      000000E8H   SFRSYM    DATA     BIT       P60
      000000C8H.1 SFRSYM    DATA     BIT       P51
      000000C0H.2 SFRSYM    DATA     BIT       P42
      000000B0H.3 SFRSYM    DATA     BIT       P33
      000000A0H.4 SFRSYM    DATA     BIT       P24
      00000090H.5 SFRSYM    DATA     BIT       P15
      00000080H.6 SFRSYM    DATA     BIT       P06
      000000F8H   SFRSYM    DATA     BIT       P70
      000000E8H.1 SFRSYM    DATA     BIT       P61
      000000C8H.2 SFRSYM    DATA     BIT       P52
      000000C0H.3 SFRSYM    DATA     BIT       P43
      000000B8H.6 SFRSYM    DATA     BIT       PLVD
      000000B0H.4 SFRSYM    DATA     BIT       P34
      000000A0H.5 SFRSYM    DATA     BIT       P25
      00000090H.6 SFRSYM    DATA     BIT       P16
      00000080H.7 SFRSYM    DATA     BIT       P07
      000000F8H.1 SFRSYM    DATA     BIT       P71
LX51 LINKER/LOCATER V4.41                                                             05/12/2022  17:30:48  PAGE 27


      000000E8H.2 SFRSYM    DATA     BIT       P62
      000000C8H.3 SFRSYM    DATA     BIT       P53
      000000C0H.4 SFRSYM    DATA     BIT       P44
      000000B0H.5 SFRSYM    DATA     BIT       P35
      000000A0H.6 SFRSYM    DATA     BIT       P26
      00000090H.7 SFRSYM    DATA     BIT       P17
      000000F8H.2 SFRSYM    DATA     BIT       P72
      000000E8H.3 SFRSYM    DATA     BIT       P63
      000000C8H.4 SFRSYM    DATA     BIT       P54
      000000C0H.5 SFRSYM    DATA     BIT       P45
      000000B0H.6 SFRSYM    DATA     BIT       P36
      000000A0H.7 SFRSYM    DATA     BIT       P27
      000000F8H.3 SFRSYM    DATA     BIT       P73
      000000E8H.4 SFRSYM    DATA     BIT       P64
      000000C8H.5 SFRSYM    DATA     BIT       P55
      000000C0H.6 SFRSYM    DATA     BIT       P46
      000000B0H.7 SFRSYM    DATA     BIT       P37
      000000F8H.4 SFRSYM    DATA     BIT       P74
      000000E8H.5 SFRSYM    DATA     BIT       P65
      000000C8H.6 SFRSYM    DATA     BIT       P56
      000000C0H.7 SFRSYM    DATA     BIT       P47
      000000F8H.5 SFRSYM    DATA     BIT       P75
      000000E8H.6 SFRSYM    DATA     BIT       P66
      000000C8H.7 SFRSYM    DATA     BIT       P57
      000000F8H.6 SFRSYM    DATA     BIT       P76
      000000E8H.7 SFRSYM    DATA     BIT       P67
      000000F8H.7 SFRSYM    DATA     BIT       P77
      00000088H.1 SFRSYM    DATA     BIT       IE0
      00000088H.3 SFRSYM    DATA     BIT       IE1
      000000AFH   SFRSYM    DATA     BYTE      IE2
      000000F0H   SFRSYM    DATA     BYTE      B
      0000008EH   SFRSYM    DATA     BYTE      AUXR
      000000FCH   SFRSYM    DATA     BYTE      USBADR
      000000C7H   SFRSYM    DATA     BYTE      IAP_CONTR
      000000ECH   SFRSYM    DATA     BYTE      USBDAT
      000000DCH   SFRSYM    DATA     BYTE      USBCLK
      000000E0H   SFRSYM    DATA     BYTE      ACC
      000000A8H.1 SFRSYM    DATA     BIT       ET0
      000000A8H.3 SFRSYM    DATA     BIT       ET1
      00000088H.5 SFRSYM    DATA     BIT       TF0
      000000FFH   SFRSYM    DATA     BYTE      RSTCFG
      000000B5H   SFRSYM    DATA     BYTE      IP2
      00000088H.7 SFRSYM    DATA     BIT       TF1
      000000F4H   SFRSYM    DATA     BYTE      USBCON
      000000DFH   SFRSYM    DATA     BYTE      IP3
      00000098H.2 SFRSYM    DATA     BIT       RB8
      0000008CH   SFRSYM    DATA     BYTE      TH0
      000000A8H   SFRSYM    DATA     BIT       EX0
      0000008DH   SFRSYM    DATA     BYTE      TH1
      00000088H   SFRSYM    DATA     BIT       IT0
      000000D6H   SFRSYM    DATA     BYTE      T2H
      000000A8H.2 SFRSYM    DATA     BIT       EX1
      00000098H.3 SFRSYM    DATA     BIT       TB8
      00000088H.2 SFRSYM    DATA     BIT       IT1
      000000D4H   SFRSYM    DATA     BYTE      T3H
      000000D0H   SFRSYM    DATA     BIT       P
      000000D2H   SFRSYM    DATA     BYTE      T4H
      00000098H.7 SFRSYM    DATA     BIT       SM0
      0000008AH   SFRSYM    DATA     BYTE      TL0
      00000098H.6 SFRSYM    DATA     BIT       SM1
      0000008BH   SFRSYM    DATA     BYTE      TL1
      000000D7H   SFRSYM    DATA     BYTE      T2L
      00000098H.5 SFRSYM    DATA     BIT       SM2
      000000D5H   SFRSYM    DATA     BYTE      T3L
      000000D3H   SFRSYM    DATA     BYTE      T4L
LX51 LINKER/LOCATER V4.41                                                             05/12/2022  17:30:48  PAGE 28


      000000B8H.1 SFRSYM    DATA     BIT       PT0
      000000D0H.3 SFRSYM    DATA     BIT       RS0
      000000B8H.3 SFRSYM    DATA     BIT       PT1
      000000D0H.4 SFRSYM    DATA     BIT       RS1
      000000C2H   SFRSYM    DATA     BYTE      IAP_DATA
      00000088H.4 SFRSYM    DATA     BIT       TR0
      00000088H.6 SFRSYM    DATA     BIT       TR1
      000000C1H   SFRSYM    DATA     BYTE      WDT_CONTR
      000000B8H   SFRSYM    DATA     BIT       PX0
      000000B8H.2 SFRSYM    DATA     BIT       PX1
      0000009FH   SFRSYM    DATA     BYTE      IRTRIM
      00000083H   SFRSYM    DATA     BYTE      DPH
      000000D1H   SFRSYM    DATA     BYTE      T4T3M
      000000BEH   SFRSYM    DATA     BYTE      ADC_RESL
      00000082H   SFRSYM    DATA     BYTE      DPL
      000000CDH   SFRSYM    DATA     BYTE      SPSTAT
      000000B7H   SFRSYM    DATA     BYTE      IPH
      0000009BH   SFRSYM    DATA     BYTE      S2BUF
      000000ADH   SFRSYM    DATA     BYTE      S3BUF
      00000098H.4 SFRSYM    DATA     BIT       REN
      00000085H   SFRSYM    DATA     BYTE      S4BUF
      0000009AH   SFRSYM    DATA     BYTE      S2CON
      000000E3H   SFRSYM    DATA     BYTE      DPS
      000000ACH   SFRSYM    DATA     BYTE      S3CON
      00000084H   SFRSYM    DATA     BYTE      S4CON
      000000EFH   SFRSYM    DATA     BYTE      AUXINTIF
      000000B9H   SFRSYM    DATA     BYTE      SADEN
      000000A9H   SFRSYM    DATA     BYTE      SADDR
      000000C6H   SFRSYM    DATA     BYTE      IAP_TRIG
      000000D0H.5 SFRSYM    DATA     BIT       F0
      0000009DH   SFRSYM    DATA     BYTE      IRCBAND
      000000D0H   SFRSYM    DATA     BYTE      PSW
      000000CFH   SFRSYM    DATA     BYTE      SPDAT
      00000094H   SFRSYM    DATA     BYTE      P0M0

      0100151CH   BLOCK     CODE     ---       LVL=0
      0100151CH   LINE      CODE     ---       #89
      0100151CH   LINE      CODE     ---       #90
      0100151CH   LINE      CODE     ---       #91
      0100151FH   LINE      CODE     ---       #96
      01001529H   LINE      CODE     ---       #100
      0100152CH   LINE      CODE     ---       #101
      01001532H   LINE      CODE     ---       #102
      01001539H   LINE      CODE     ---       #103
      0100153EH   LINE      CODE     ---       #104
      01001543H   LINE      CODE     ---       #105
      01001546H   LINE      CODE     ---       #108
      01001549H   LINE      CODE     ---       #110
      0100154CH   LINE      CODE     ---       #111
      0100154EH   LINE      CODE     ---       #112
      01001550H   LINE      CODE     ---       #113
      01001552H   LINE      CODE     ---       #114
      01001554H   LINE      CODE     ---       #115
      01001556H   LINE      CODE     ---       #116
      01001558H   LINE      CODE     ---       #117
      0100155AH   LINE      CODE     ---       #118
      0100155CH   LINE      CODE     ---       #119
      0100155EH   LINE      CODE     ---       #120
      01001560H   LINE      CODE     ---       #121
      01001562H   LINE      CODE     ---       #122
      01001564H   LINE      CODE     ---       #123
      01001566H   LINE      CODE     ---       #124
      01001568H   LINE      CODE     ---       #125
      0100156AH   LINE      CODE     ---       #127
      0100156CH   LINE      CODE     ---       #128
LX51 LINKER/LOCATER V4.41                                                             05/12/2022  17:30:48  PAGE 29


      0100156EH   LINE      CODE     ---       #129
      01001570H   LINE      CODE     ---       #130
      01001572H   LINE      CODE     ---       #131
      01001574H   LINE      CODE     ---       #132
      01001576H   LINE      CODE     ---       #133
      01001578H   LINE      CODE     ---       #134
      0100157AH   LINE      CODE     ---       #135
      0100157CH   LINE      CODE     ---       #136
      0100157EH   LINE      CODE     ---       #138
      ---         BLOCKEND  ---      ---       LVL=0

      0100181CH   BLOCK     CODE     ---       LVL=0
      0100181CH   LINE      CODE     ---       #151
      0100181CH   LINE      CODE     ---       #152
      0100181CH   LINE      CODE     ---       #153
      0100181EH   LINE      CODE     ---       #154
      ---         BLOCKEND  ---      ---       LVL=0

      0100181FH   BLOCK     CODE     ---       LVL=0
      0100181FH   LINE      CODE     ---       #157
      0100181FH   LINE      CODE     ---       #158
      0100181FH   LINE      CODE     ---       #159
      01001821H   LINE      CODE     ---       #160
      ---         BLOCKEND  ---      ---       LVL=0

      ---         MODULE    ---      ---       ZF_SPI
      00000093H   SFRSYM    DATA     BYTE      P0M1
      00000092H   SFRSYM    DATA     BYTE      P1M0
      00000096H   SFRSYM    DATA     BYTE      P2M0
      00000091H   SFRSYM    DATA     BYTE      P1M1
      00000080H   SFRSYM    DATA     BYTE      P0
      000000B2H   SFRSYM    DATA     BYTE      P3M0
      00000095H   SFRSYM    DATA     BYTE      P2M1
      00000090H   SFRSYM    DATA     BYTE      P1
      000000B4H   SFRSYM    DATA     BYTE      P4M0
      000000B1H   SFRSYM    DATA     BYTE      P3M1
      000000A0H   SFRSYM    DATA     BYTE      P2
      000000CAH   SFRSYM    DATA     BYTE      P5M0
      000000B3H   SFRSYM    DATA     BYTE      P4M1
      000000B0H   SFRSYM    DATA     BYTE      P3
      000000ABH   SFRSYM    DATA     BYTE      WKTCH
      000000D0H.6 SFRSYM    DATA     BIT       AC
      000000CCH   SFRSYM    DATA     BYTE      P6M0
      000000C9H   SFRSYM    DATA     BYTE      P5M1
      000000C0H   SFRSYM    DATA     BYTE      P4
      000000E2H   SFRSYM    DATA     BYTE      P7M0
      000000CBH   SFRSYM    DATA     BYTE      P6M1
      000000C8H   SFRSYM    DATA     BYTE      P5
      000000E8H   SFRSYM    DATA     BYTE      P6
      000000E1H   SFRSYM    DATA     BYTE      P7M1
      000000A8H.7 SFRSYM    DATA     BIT       EA
      000000F8H   SFRSYM    DATA     BYTE      P7
      000000AAH   SFRSYM    DATA     BYTE      WKTCL
      000000CEH   SFRSYM    DATA     BYTE      SPCTL
      000000A2H   SFRSYM    DATA     BYTE      P_SW1
      000000BAH   SFRSYM    DATA     BYTE      P_SW2
      000000E5H   SFRSYM    DATA     BYTE      DPH1
      000000A8H.5 SFRSYM    DATA     BIT       EADC
      000000A8H   SFRSYM    DATA     BYTE      IE
      000000C5H   SFRSYM    DATA     BYTE      IAP_CMD
      000000E4H   SFRSYM    DATA     BYTE      DPL1
      000000BDH   SFRSYM    DATA     BYTE      ADC_RES
      000000B6H   SFRSYM    DATA     BYTE      IP2H
      000000EEH   SFRSYM    DATA     BYTE      IP3H
      000000AEH   SFRSYM    DATA     BYTE      TA
LX51 LINKER/LOCATER V4.41                                                             05/12/2022  17:30:48  PAGE 30


      0000008FH   SFRSYM    DATA     BYTE      INTCLKO
      000000A8H.4 SFRSYM    DATA     BIT       ES
      000000B8H.5 SFRSYM    DATA     BIT       PADC
      000000B8H   SFRSYM    DATA     BYTE      IP
      000000DEH   SFRSYM    DATA     BYTE      ADCCFG
      00000098H   SFRSYM    DATA     BIT       RI
      000000D0H.7 SFRSYM    DATA     BIT       CY
      00000098H.1 SFRSYM    DATA     BIT       TI
      000000C3H   SFRSYM    DATA     BYTE      IAP_ADDRH
      000000B8H.4 SFRSYM    DATA     BIT       PS
      00000081H   SFRSYM    DATA     BYTE      SP
      000000C4H   SFRSYM    DATA     BYTE      IAP_ADDRL
      000000D0H.2 SFRSYM    DATA     BIT       OV
      000000B8H.7 SFRSYM    DATA     BIT       PPCA
      0000009EH   SFRSYM    DATA     BYTE      LIRTRIM
      000000E6H   SFRSYM    DATA     BYTE      CMPCR1
      000000E7H   SFRSYM    DATA     BYTE      CMPCR2
      000000A8H.6 SFRSYM    DATA     BIT       ELVD
      00000080H   SFRSYM    DATA     BIT       P00
      000000BCH   SFRSYM    DATA     BYTE      ADC_CONTR
      00000099H   SFRSYM    DATA     BYTE      SBUF
      00000090H   SFRSYM    DATA     BIT       P10
      00000087H   SFRSYM    DATA     BYTE      PCON
      00000080H.1 SFRSYM    DATA     BIT       P01
      000000A0H   SFRSYM    DATA     BIT       P20
      00000090H.1 SFRSYM    DATA     BIT       P11
      00000080H.2 SFRSYM    DATA     BIT       P02
      000000F5H   SFRSYM    DATA     BYTE      IAP_TPS
      000000B0H   SFRSYM    DATA     BIT       P30
      000000A0H.1 SFRSYM    DATA     BIT       P21
      00000090H.2 SFRSYM    DATA     BIT       P12
      00000080H.3 SFRSYM    DATA     BIT       P03
      000000C0H   SFRSYM    DATA     BIT       P40
      000000B0H.1 SFRSYM    DATA     BIT       P31
      000000A0H.2 SFRSYM    DATA     BIT       P22
      00000098H   SFRSYM    DATA     BYTE      SCON
      00000090H.3 SFRSYM    DATA     BIT       P13
      00000080H.4 SFRSYM    DATA     BIT       P04
      000000C8H   SFRSYM    DATA     BIT       P50
      000000C0H.1 SFRSYM    DATA     BIT       P41
      000000B0H.2 SFRSYM    DATA     BIT       P32
      000000A0H.3 SFRSYM    DATA     BIT       P23
      00000090H.4 SFRSYM    DATA     BIT       P14
      00000089H   SFRSYM    DATA     BYTE      TMOD
      00000088H   SFRSYM    DATA     BYTE      TCON
      00000080H.5 SFRSYM    DATA     BIT       P05
      000000E8H   SFRSYM    DATA     BIT       P60
      000000C8H.1 SFRSYM    DATA     BIT       P51
      000000C0H.2 SFRSYM    DATA     BIT       P42
      000000B0H.3 SFRSYM    DATA     BIT       P33
      000000A0H.4 SFRSYM    DATA     BIT       P24
      00000090H.5 SFRSYM    DATA     BIT       P15
      00000080H.6 SFRSYM    DATA     BIT       P06
      000000F8H   SFRSYM    DATA     BIT       P70
      000000E8H.1 SFRSYM    DATA     BIT       P61
      000000C8H.2 SFRSYM    DATA     BIT       P52
      000000C0H.3 SFRSYM    DATA     BIT       P43
      000000B8H.6 SFRSYM    DATA     BIT       PLVD
      000000B0H.4 SFRSYM    DATA     BIT       P34
      000000A0H.5 SFRSYM    DATA     BIT       P25
      00000090H.6 SFRSYM    DATA     BIT       P16
      00000080H.7 SFRSYM    DATA     BIT       P07
      000000F8H.1 SFRSYM    DATA     BIT       P71
      000000E8H.2 SFRSYM    DATA     BIT       P62
      000000C8H.3 SFRSYM    DATA     BIT       P53
LX51 LINKER/LOCATER V4.41                                                             05/12/2022  17:30:48  PAGE 31


      000000C0H.4 SFRSYM    DATA     BIT       P44
      000000B0H.5 SFRSYM    DATA     BIT       P35
      000000A0H.6 SFRSYM    DATA     BIT       P26
      00000090H.7 SFRSYM    DATA     BIT       P17
      000000F8H.2 SFRSYM    DATA     BIT       P72
      000000E8H.3 SFRSYM    DATA     BIT       P63
      000000C8H.4 SFRSYM    DATA     BIT       P54
      000000C0H.5 SFRSYM    DATA     BIT       P45
      000000B0H.6 SFRSYM    DATA     BIT       P36
      000000A0H.7 SFRSYM    DATA     BIT       P27
      000000F8H.3 SFRSYM    DATA     BIT       P73
      000000E8H.4 SFRSYM    DATA     BIT       P64
      000000C8H.5 SFRSYM    DATA     BIT       P55
      000000C0H.6 SFRSYM    DATA     BIT       P46
      000000B0H.7 SFRSYM    DATA     BIT       P37
      000000F8H.4 SFRSYM    DATA     BIT       P74
      000000E8H.5 SFRSYM    DATA     BIT       P65
      000000C8H.6 SFRSYM    DATA     BIT       P56
      000000C0H.7 SFRSYM    DATA     BIT       P47
      000000F8H.5 SFRSYM    DATA     BIT       P75
      000000E8H.6 SFRSYM    DATA     BIT       P66
      000000C8H.7 SFRSYM    DATA     BIT       P57
      000000F8H.6 SFRSYM    DATA     BIT       P76
      000000E8H.7 SFRSYM    DATA     BIT       P67
      000000F8H.7 SFRSYM    DATA     BIT       P77
      00000088H.1 SFRSYM    DATA     BIT       IE0
      00000088H.3 SFRSYM    DATA     BIT       IE1
      000000AFH   SFRSYM    DATA     BYTE      IE2
      000000F0H   SFRSYM    DATA     BYTE      B
      0000008EH   SFRSYM    DATA     BYTE      AUXR
      000000FCH   SFRSYM    DATA     BYTE      USBADR
      000000C7H   SFRSYM    DATA     BYTE      IAP_CONTR
      000000ECH   SFRSYM    DATA     BYTE      USBDAT
      000000DCH   SFRSYM    DATA     BYTE      USBCLK
      000000E0H   SFRSYM    DATA     BYTE      ACC
      000000A8H.1 SFRSYM    DATA     BIT       ET0
      000000A8H.3 SFRSYM    DATA     BIT       ET1
      00000088H.5 SFRSYM    DATA     BIT       TF0
      000000FFH   SFRSYM    DATA     BYTE      RSTCFG
      000000B5H   SFRSYM    DATA     BYTE      IP2
      00000088H.7 SFRSYM    DATA     BIT       TF1
      000000F4H   SFRSYM    DATA     BYTE      USBCON
      000000DFH   SFRSYM    DATA     BYTE      IP3
      00000098H.2 SFRSYM    DATA     BIT       RB8
      0000008CH   SFRSYM    DATA     BYTE      TH0
      000000A8H   SFRSYM    DATA     BIT       EX0
      0000008DH   SFRSYM    DATA     BYTE      TH1
      00000088H   SFRSYM    DATA     BIT       IT0
      000000D6H   SFRSYM    DATA     BYTE      T2H
      000000A8H.2 SFRSYM    DATA     BIT       EX1
      00000098H.3 SFRSYM    DATA     BIT       TB8
      00000088H.2 SFRSYM    DATA     BIT       IT1
      000000D4H   SFRSYM    DATA     BYTE      T3H
      000000D0H   SFRSYM    DATA     BIT       P
      000000D2H   SFRSYM    DATA     BYTE      T4H
      00000098H.7 SFRSYM    DATA     BIT       SM0
      0000008AH   SFRSYM    DATA     BYTE      TL0
      00000098H.6 SFRSYM    DATA     BIT       SM1
      0000008BH   SFRSYM    DATA     BYTE      TL1
      000000D7H   SFRSYM    DATA     BYTE      T2L
      00000098H.5 SFRSYM    DATA     BIT       SM2
      000000D5H   SFRSYM    DATA     BYTE      T3L
      000000D3H   SFRSYM    DATA     BYTE      T4L
      000000B8H.1 SFRSYM    DATA     BIT       PT0
      000000D0H.3 SFRSYM    DATA     BIT       RS0
LX51 LINKER/LOCATER V4.41                                                             05/12/2022  17:30:48  PAGE 32


      000000B8H.3 SFRSYM    DATA     BIT       PT1
      000000D0H.4 SFRSYM    DATA     BIT       RS1
      000000C2H   SFRSYM    DATA     BYTE      IAP_DATA
      00000088H.4 SFRSYM    DATA     BIT       TR0
      00000088H.6 SFRSYM    DATA     BIT       TR1
      000000C1H   SFRSYM    DATA     BYTE      WDT_CONTR
      000000B8H   SFRSYM    DATA     BIT       PX0
      000000B8H.2 SFRSYM    DATA     BIT       PX1
      0000009FH   SFRSYM    DATA     BYTE      IRTRIM
      00000083H   SFRSYM    DATA     BYTE      DPH
      000000D1H   SFRSYM    DATA     BYTE      T4T3M
      000000BEH   SFRSYM    DATA     BYTE      ADC_RESL
      00000082H   SFRSYM    DATA     BYTE      DPL
      000000CDH   SFRSYM    DATA     BYTE      SPSTAT
      000000B7H   SFRSYM    DATA     BYTE      IPH
      0000009BH   SFRSYM    DATA     BYTE      S2BUF
      000000ADH   SFRSYM    DATA     BYTE      S3BUF
      00000098H.4 SFRSYM    DATA     BIT       REN
      00000085H   SFRSYM    DATA     BYTE      S4BUF
      0000009AH   SFRSYM    DATA     BYTE      S2CON
      000000E3H   SFRSYM    DATA     BYTE      DPS
      000000ACH   SFRSYM    DATA     BYTE      S3CON
      00000084H   SFRSYM    DATA     BYTE      S4CON
      000000EFH   SFRSYM    DATA     BYTE      AUXINTIF
      000000B9H   SFRSYM    DATA     BYTE      SADEN
      000000A9H   SFRSYM    DATA     BYTE      SADDR
      000000C6H   SFRSYM    DATA     BYTE      IAP_TRIG
      000000D0H.5 SFRSYM    DATA     BIT       F0
      0000009DH   SFRSYM    DATA     BYTE      IRCBAND
      000000D0H   SFRSYM    DATA     BYTE      PSW
      000000CFH   SFRSYM    DATA     BYTE      SPDAT
      00000094H   SFRSYM    DATA     BYTE      P0M0
      00000007H   SYMBOL    DATA     BYTE      dat
      00000007H   SYMBOL    DATA     BYTE      mode

      ---         MODULE    ---      ---       ZF_IIC
      00000093H   SFRSYM    DATA     BYTE      P0M1
      00000092H   SFRSYM    DATA     BYTE      P1M0
      00000096H   SFRSYM    DATA     BYTE      P2M0
      00000091H   SFRSYM    DATA     BYTE      P1M1
      00000080H   SFRSYM    DATA     BYTE      P0
      000000B2H   SFRSYM    DATA     BYTE      P3M0
      00000095H   SFRSYM    DATA     BYTE      P2M1
      00000090H   SFRSYM    DATA     BYTE      P1
      000000B4H   SFRSYM    DATA     BYTE      P4M0
      000000B1H   SFRSYM    DATA     BYTE      P3M1
      000000A0H   SFRSYM    DATA     BYTE      P2
      000000CAH   SFRSYM    DATA     BYTE      P5M0
      000000B3H   SFRSYM    DATA     BYTE      P4M1
      000000B0H   SFRSYM    DATA     BYTE      P3
      000000ABH   SFRSYM    DATA     BYTE      WKTCH
      000000D0H.6 SFRSYM    DATA     BIT       AC
      000000CCH   SFRSYM    DATA     BYTE      P6M0
      000000C9H   SFRSYM    DATA     BYTE      P5M1
      000000C0H   SFRSYM    DATA     BYTE      P4
      000000E2H   SFRSYM    DATA     BYTE      P7M0
      000000CBH   SFRSYM    DATA     BYTE      P6M1
      000000C8H   SFRSYM    DATA     BYTE      P5
      000000E8H   SFRSYM    DATA     BYTE      P6
      000000E1H   SFRSYM    DATA     BYTE      P7M1
      000000A8H.7 SFRSYM    DATA     BIT       EA
      000000F8H   SFRSYM    DATA     BYTE      P7
      000000AAH   SFRSYM    DATA     BYTE      WKTCL
      000000CEH   SFRSYM    DATA     BYTE      SPCTL
      000000A2H   SFRSYM    DATA     BYTE      P_SW1
LX51 LINKER/LOCATER V4.41                                                             05/12/2022  17:30:48  PAGE 33


      000000BAH   SFRSYM    DATA     BYTE      P_SW2
      000000E5H   SFRSYM    DATA     BYTE      DPH1
      000000A8H.5 SFRSYM    DATA     BIT       EADC
      000000A8H   SFRSYM    DATA     BYTE      IE
      000000C5H   SFRSYM    DATA     BYTE      IAP_CMD
      000000E4H   SFRSYM    DATA     BYTE      DPL1
      000000BDH   SFRSYM    DATA     BYTE      ADC_RES
      000000B6H   SFRSYM    DATA     BYTE      IP2H
      000000EEH   SFRSYM    DATA     BYTE      IP3H
      000000AEH   SFRSYM    DATA     BYTE      TA
      0000008FH   SFRSYM    DATA     BYTE      INTCLKO
      000000A8H.4 SFRSYM    DATA     BIT       ES
      000000B8H.5 SFRSYM    DATA     BIT       PADC
      000000B8H   SFRSYM    DATA     BYTE      IP
      000000DEH   SFRSYM    DATA     BYTE      ADCCFG
      00000098H   SFRSYM    DATA     BIT       RI
      000000D0H.7 SFRSYM    DATA     BIT       CY
      00000098H.1 SFRSYM    DATA     BIT       TI
      000000C3H   SFRSYM    DATA     BYTE      IAP_ADDRH
      000000B8H.4 SFRSYM    DATA     BIT       PS
      00000081H   SFRSYM    DATA     BYTE      SP
      000000C4H   SFRSYM    DATA     BYTE      IAP_ADDRL
      000000D0H.2 SFRSYM    DATA     BIT       OV
      000000B8H.7 SFRSYM    DATA     BIT       PPCA
      0000009EH   SFRSYM    DATA     BYTE      LIRTRIM
      000000E6H   SFRSYM    DATA     BYTE      CMPCR1
      000000E7H   SFRSYM    DATA     BYTE      CMPCR2
      000000A8H.6 SFRSYM    DATA     BIT       ELVD
      00000080H   SFRSYM    DATA     BIT       P00
      000000BCH   SFRSYM    DATA     BYTE      ADC_CONTR
      00000099H   SFRSYM    DATA     BYTE      SBUF
      00000090H   SFRSYM    DATA     BIT       P10
      00000087H   SFRSYM    DATA     BYTE      PCON
      00000080H.1 SFRSYM    DATA     BIT       P01
      000000A0H   SFRSYM    DATA     BIT       P20
      00000090H.1 SFRSYM    DATA     BIT       P11
      00000080H.2 SFRSYM    DATA     BIT       P02
      000000F5H   SFRSYM    DATA     BYTE      IAP_TPS
      000000B0H   SFRSYM    DATA     BIT       P30
      000000A0H.1 SFRSYM    DATA     BIT       P21
      00000090H.2 SFRSYM    DATA     BIT       P12
      00000080H.3 SFRSYM    DATA     BIT       P03
      000000C0H   SFRSYM    DATA     BIT       P40
      000000B0H.1 SFRSYM    DATA     BIT       P31
      000000A0H.2 SFRSYM    DATA     BIT       P22
      00000098H   SFRSYM    DATA     BYTE      SCON
      00000090H.3 SFRSYM    DATA     BIT       P13
      00000080H.4 SFRSYM    DATA     BIT       P04
      000000C8H   SFRSYM    DATA     BIT       P50
      000000C0H.1 SFRSYM    DATA     BIT       P41
      000000B0H.2 SFRSYM    DATA     BIT       P32
      000000A0H.3 SFRSYM    DATA     BIT       P23
      00000090H.4 SFRSYM    DATA     BIT       P14
      00000089H   SFRSYM    DATA     BYTE      TMOD
      00000088H   SFRSYM    DATA     BYTE      TCON
      00000080H.5 SFRSYM    DATA     BIT       P05
      000000E8H   SFRSYM    DATA     BIT       P60
      000000C8H.1 SFRSYM    DATA     BIT       P51
      000000C0H.2 SFRSYM    DATA     BIT       P42
      000000B0H.3 SFRSYM    DATA     BIT       P33
      000000A0H.4 SFRSYM    DATA     BIT       P24
      00000090H.5 SFRSYM    DATA     BIT       P15
      00000080H.6 SFRSYM    DATA     BIT       P06
      000000F8H   SFRSYM    DATA     BIT       P70
      000000E8H.1 SFRSYM    DATA     BIT       P61
LX51 LINKER/LOCATER V4.41                                                             05/12/2022  17:30:48  PAGE 34


      000000C8H.2 SFRSYM    DATA     BIT       P52
      000000C0H.3 SFRSYM    DATA     BIT       P43
      000000B8H.6 SFRSYM    DATA     BIT       PLVD
      000000B0H.4 SFRSYM    DATA     BIT       P34
      000000A0H.5 SFRSYM    DATA     BIT       P25
      00000090H.6 SFRSYM    DATA     BIT       P16
      00000080H.7 SFRSYM    DATA     BIT       P07
      000000F8H.1 SFRSYM    DATA     BIT       P71
      000000E8H.2 SFRSYM    DATA     BIT       P62
      000000C8H.3 SFRSYM    DATA     BIT       P53
      000000C0H.4 SFRSYM    DATA     BIT       P44
      000000B0H.5 SFRSYM    DATA     BIT       P35
      000000A0H.6 SFRSYM    DATA     BIT       P26
      00000090H.7 SFRSYM    DATA     BIT       P17
      000000F8H.2 SFRSYM    DATA     BIT       P72
      000000E8H.3 SFRSYM    DATA     BIT       P63
      000000C8H.4 SFRSYM    DATA     BIT       P54
      000000C0H.5 SFRSYM    DATA     BIT       P45
      000000B0H.6 SFRSYM    DATA     BIT       P36
      000000A0H.7 SFRSYM    DATA     BIT       P27
      000000F8H.3 SFRSYM    DATA     BIT       P73
      000000E8H.4 SFRSYM    DATA     BIT       P64
      000000C8H.5 SFRSYM    DATA     BIT       P55
      000000C0H.6 SFRSYM    DATA     BIT       P46
      000000B0H.7 SFRSYM    DATA     BIT       P37
      000000F8H.4 SFRSYM    DATA     BIT       P74
      000000E8H.5 SFRSYM    DATA     BIT       P65
      000000C8H.6 SFRSYM    DATA     BIT       P56
      000000C0H.7 SFRSYM    DATA     BIT       P47
      000000F8H.5 SFRSYM    DATA     BIT       P75
      000000E8H.6 SFRSYM    DATA     BIT       P66
      000000C8H.7 SFRSYM    DATA     BIT       P57
      000000F8H.6 SFRSYM    DATA     BIT       P76
      000000E8H.7 SFRSYM    DATA     BIT       P67
      000000F8H.7 SFRSYM    DATA     BIT       P77
      00000088H.1 SFRSYM    DATA     BIT       IE0
      00000088H.3 SFRSYM    DATA     BIT       IE1
      000000AFH   SFRSYM    DATA     BYTE      IE2
      000000F0H   SFRSYM    DATA     BYTE      B
      0000008EH   SFRSYM    DATA     BYTE      AUXR
      000000FCH   SFRSYM    DATA     BYTE      USBADR
      000000C7H   SFRSYM    DATA     BYTE      IAP_CONTR
      000000ECH   SFRSYM    DATA     BYTE      USBDAT
      000000DCH   SFRSYM    DATA     BYTE      USBCLK
      000000E0H   SFRSYM    DATA     BYTE      ACC
      000000A8H.1 SFRSYM    DATA     BIT       ET0
      000000A8H.3 SFRSYM    DATA     BIT       ET1
      00000088H.5 SFRSYM    DATA     BIT       TF0
      000000FFH   SFRSYM    DATA     BYTE      RSTCFG
      000000B5H   SFRSYM    DATA     BYTE      IP2
      00000088H.7 SFRSYM    DATA     BIT       TF1
      000000F4H   SFRSYM    DATA     BYTE      USBCON
      000000DFH   SFRSYM    DATA     BYTE      IP3
      00000098H.2 SFRSYM    DATA     BIT       RB8
      0000008CH   SFRSYM    DATA     BYTE      TH0
      000000A8H   SFRSYM    DATA     BIT       EX0
      0000008DH   SFRSYM    DATA     BYTE      TH1
      00000088H   SFRSYM    DATA     BIT       IT0
      000000D6H   SFRSYM    DATA     BYTE      T2H
      000000A8H.2 SFRSYM    DATA     BIT       EX1
      00000098H.3 SFRSYM    DATA     BIT       TB8
      00000088H.2 SFRSYM    DATA     BIT       IT1
      000000D4H   SFRSYM    DATA     BYTE      T3H
      000000D0H   SFRSYM    DATA     BIT       P
      000000D2H   SFRSYM    DATA     BYTE      T4H
LX51 LINKER/LOCATER V4.41                                                             05/12/2022  17:30:48  PAGE 35


      00000098H.7 SFRSYM    DATA     BIT       SM0
      0000008AH   SFRSYM    DATA     BYTE      TL0
      00000098H.6 SFRSYM    DATA     BIT       SM1
      0000008BH   SFRSYM    DATA     BYTE      TL1
      000000D7H   SFRSYM    DATA     BYTE      T2L
      00000098H.5 SFRSYM    DATA     BIT       SM2
      000000D5H   SFRSYM    DATA     BYTE      T3L
      000000D3H   SFRSYM    DATA     BYTE      T4L
      000000B8H.1 SFRSYM    DATA     BIT       PT0
      000000D0H.3 SFRSYM    DATA     BIT       RS0
      000000B8H.3 SFRSYM    DATA     BIT       PT1
      000000D0H.4 SFRSYM    DATA     BIT       RS1
      000000C2H   SFRSYM    DATA     BYTE      IAP_DATA
      00000088H.4 SFRSYM    DATA     BIT       TR0
      00000088H.6 SFRSYM    DATA     BIT       TR1
      000000C1H   SFRSYM    DATA     BYTE      WDT_CONTR
      000000B8H   SFRSYM    DATA     BIT       PX0
      000000B8H.2 SFRSYM    DATA     BIT       PX1
      0000009FH   SFRSYM    DATA     BYTE      IRTRIM
      00000083H   SFRSYM    DATA     BYTE      DPH
      000000D1H   SFRSYM    DATA     BYTE      T4T3M
      000000BEH   SFRSYM    DATA     BYTE      ADC_RESL
      00000082H   SFRSYM    DATA     BYTE      DPL
      000000CDH   SFRSYM    DATA     BYTE      SPSTAT
      000000B7H   SFRSYM    DATA     BYTE      IPH
      0000009BH   SFRSYM    DATA     BYTE      S2BUF
      000000ADH   SFRSYM    DATA     BYTE      S3BUF
      00000098H.4 SFRSYM    DATA     BIT       REN
      00000085H   SFRSYM    DATA     BYTE      S4BUF
      0000009AH   SFRSYM    DATA     BYTE      S2CON
      000000E3H   SFRSYM    DATA     BYTE      DPS
      000000ACH   SFRSYM    DATA     BYTE      S3CON
      00000084H   SFRSYM    DATA     BYTE      S4CON
      000000EFH   SFRSYM    DATA     BYTE      AUXINTIF
      000000B9H   SFRSYM    DATA     BYTE      SADEN
      000000A9H   SFRSYM    DATA     BYTE      SADDR
      000000C6H   SFRSYM    DATA     BYTE      IAP_TRIG
      000000D0H.5 SFRSYM    DATA     BIT       F0
      0000009DH   SFRSYM    DATA     BYTE      IRCBAND
      000000D0H   SFRSYM    DATA     BYTE      PSW
      000000CFH   SFRSYM    DATA     BYTE      SPDAT
      00000094H   SFRSYM    DATA     BYTE      P0M0
      00000006H   SYMBOL    DATA     WORD      x
      00000005H   SYMBOL    DATA     BYTE      i
      00000004H   SYMBOL    DATA     BYTE      ret
      00000004H   SYMBOL    DATA     BYTE      ret
      00000007H   SYMBOL    DATA     BYTE      ret
      00000007H   SYMBOL    DATA     BYTE      ret
      00000007H   SYMBOL    DATA     CHAR      dat
      00000007H   SYMBOL    DATA     BYTE      ret
      00000007H   SYMBOL    DATA     BYTE      ret
      00000007H   SYMBOL    DATA     BYTE      ret
      00000007H   SYMBOL    DATA     BYTE      ret
      00000007H   SYMBOL    DATA     BYTE      ret
      00000007H   SYMBOL    DATA     BYTE      ret
      00000007H   SYMBOL    DATA     BYTE      iic_n
      00000001H   SYMBOL    DATA     BYTE      reg
      00000003H   SYMBOL    DATA     BYTE      dat
      00000007H   SYMBOL    DATA     BYTE      iic_n
      02000001H   SYMBOL    XDATA    BYTE      scl_pin
      02000002H   SYMBOL    XDATA    BYTE      sda_pin

      ---         MODULE    ---      ---       ZF_UART
      020001C9H   PUBLIC    XDATA    ---       busy
      02000165H   PUBLIC    XDATA    ---       uart1_tx_buff
LX51 LINKER/LOCATER V4.41                                                             05/12/2022  17:30:48  PAGE 36


      02000101H   PUBLIC    XDATA    ---       uart1_rx_buff
      02000226H   PUBLIC    XDATA    BYTE      ?_uart_init?BYTE
      010012E9H   PUBLIC    CODE     ---       _uart_init
      00000093H   SFRSYM    DATA     BYTE      P0M1
      00000092H   SFRSYM    DATA     BYTE      P1M0
      00000096H   SFRSYM    DATA     BYTE      P2M0
      00000091H   SFRSYM    DATA     BYTE      P1M1
      00000080H   SFRSYM    DATA     BYTE      P0
      000000B2H   SFRSYM    DATA     BYTE      P3M0
      00000095H   SFRSYM    DATA     BYTE      P2M1
      00000090H   SFRSYM    DATA     BYTE      P1
      000000B4H   SFRSYM    DATA     BYTE      P4M0
      000000B1H   SFRSYM    DATA     BYTE      P3M1
      000000A0H   SFRSYM    DATA     BYTE      P2
      000000CAH   SFRSYM    DATA     BYTE      P5M0
      000000B3H   SFRSYM    DATA     BYTE      P4M1
      000000B0H   SFRSYM    DATA     BYTE      P3
      000000ABH   SFRSYM    DATA     BYTE      WKTCH
      000000D0H.6 SFRSYM    DATA     BIT       AC
      000000CCH   SFRSYM    DATA     BYTE      P6M0
      000000C9H   SFRSYM    DATA     BYTE      P5M1
      000000C0H   SFRSYM    DATA     BYTE      P4
      000000E2H   SFRSYM    DATA     BYTE      P7M0
      000000CBH   SFRSYM    DATA     BYTE      P6M1
      000000C8H   SFRSYM    DATA     BYTE      P5
      000000E8H   SFRSYM    DATA     BYTE      P6
      000000E1H   SFRSYM    DATA     BYTE      P7M1
      000000A8H.7 SFRSYM    DATA     BIT       EA
      000000F8H   SFRSYM    DATA     BYTE      P7
      000000AAH   SFRSYM    DATA     BYTE      WKTCL
      000000CEH   SFRSYM    DATA     BYTE      SPCTL
      000000A2H   SFRSYM    DATA     BYTE      P_SW1
      000000BAH   SFRSYM    DATA     BYTE      P_SW2
      000000E5H   SFRSYM    DATA     BYTE      DPH1
      000000A8H.5 SFRSYM    DATA     BIT       EADC
      000000A8H   SFRSYM    DATA     BYTE      IE
      000000C5H   SFRSYM    DATA     BYTE      IAP_CMD
      000000E4H   SFRSYM    DATA     BYTE      DPL1
      000000BDH   SFRSYM    DATA     BYTE      ADC_RES
      000000B6H   SFRSYM    DATA     BYTE      IP2H
      000000EEH   SFRSYM    DATA     BYTE      IP3H
      000000AEH   SFRSYM    DATA     BYTE      TA
      0000008FH   SFRSYM    DATA     BYTE      INTCLKO
      000000A8H.4 SFRSYM    DATA     BIT       ES
      000000B8H.5 SFRSYM    DATA     BIT       PADC
      000000B8H   SFRSYM    DATA     BYTE      IP
      000000DEH   SFRSYM    DATA     BYTE      ADCCFG
      00000098H   SFRSYM    DATA     BIT       RI
      000000D0H.7 SFRSYM    DATA     BIT       CY
      00000098H.1 SFRSYM    DATA     BIT       TI
      000000C3H   SFRSYM    DATA     BYTE      IAP_ADDRH
      000000B8H.4 SFRSYM    DATA     BIT       PS
      00000081H   SFRSYM    DATA     BYTE      SP
      000000C4H   SFRSYM    DATA     BYTE      IAP_ADDRL
      000000D0H.2 SFRSYM    DATA     BIT       OV
      000000B8H.7 SFRSYM    DATA     BIT       PPCA
      0000009EH   SFRSYM    DATA     BYTE      LIRTRIM
      000000E6H   SFRSYM    DATA     BYTE      CMPCR1
      000000E7H   SFRSYM    DATA     BYTE      CMPCR2
      000000A8H.6 SFRSYM    DATA     BIT       ELVD
      00000080H   SFRSYM    DATA     BIT       P00
      000000BCH   SFRSYM    DATA     BYTE      ADC_CONTR
      00000099H   SFRSYM    DATA     BYTE      SBUF
      00000090H   SFRSYM    DATA     BIT       P10
      00000087H   SFRSYM    DATA     BYTE      PCON
LX51 LINKER/LOCATER V4.41                                                             05/12/2022  17:30:48  PAGE 37


      00000080H.1 SFRSYM    DATA     BIT       P01
      000000A0H   SFRSYM    DATA     BIT       P20
      00000090H.1 SFRSYM    DATA     BIT       P11
      00000080H.2 SFRSYM    DATA     BIT       P02
      000000F5H   SFRSYM    DATA     BYTE      IAP_TPS
      000000B0H   SFRSYM    DATA     BIT       P30
      000000A0H.1 SFRSYM    DATA     BIT       P21
      00000090H.2 SFRSYM    DATA     BIT       P12
      00000080H.3 SFRSYM    DATA     BIT       P03
      000000C0H   SFRSYM    DATA     BIT       P40
      000000B0H.1 SFRSYM    DATA     BIT       P31
      000000A0H.2 SFRSYM    DATA     BIT       P22
      00000098H   SFRSYM    DATA     BYTE      SCON
      00000090H.3 SFRSYM    DATA     BIT       P13
      00000080H.4 SFRSYM    DATA     BIT       P04
      000000C8H   SFRSYM    DATA     BIT       P50
      000000C0H.1 SFRSYM    DATA     BIT       P41
      000000B0H.2 SFRSYM    DATA     BIT       P32
      000000A0H.3 SFRSYM    DATA     BIT       P23
      00000090H.4 SFRSYM    DATA     BIT       P14
      00000089H   SFRSYM    DATA     BYTE      TMOD
      00000088H   SFRSYM    DATA     BYTE      TCON
      00000080H.5 SFRSYM    DATA     BIT       P05
      000000E8H   SFRSYM    DATA     BIT       P60
      000000C8H.1 SFRSYM    DATA     BIT       P51
      000000C0H.2 SFRSYM    DATA     BIT       P42
      000000B0H.3 SFRSYM    DATA     BIT       P33
      000000A0H.4 SFRSYM    DATA     BIT       P24
      00000090H.5 SFRSYM    DATA     BIT       P15
      00000080H.6 SFRSYM    DATA     BIT       P06
      000000F8H   SFRSYM    DATA     BIT       P70
      000000E8H.1 SFRSYM    DATA     BIT       P61
      000000C8H.2 SFRSYM    DATA     BIT       P52
      000000C0H.3 SFRSYM    DATA     BIT       P43
      000000B8H.6 SFRSYM    DATA     BIT       PLVD
      000000B0H.4 SFRSYM    DATA     BIT       P34
      000000A0H.5 SFRSYM    DATA     BIT       P25
      00000090H.6 SFRSYM    DATA     BIT       P16
      00000080H.7 SFRSYM    DATA     BIT       P07
      000000F8H.1 SFRSYM    DATA     BIT       P71
      000000E8H.2 SFRSYM    DATA     BIT       P62
      000000C8H.3 SFRSYM    DATA     BIT       P53
      000000C0H.4 SFRSYM    DATA     BIT       P44
      000000B0H.5 SFRSYM    DATA     BIT       P35
      000000A0H.6 SFRSYM    DATA     BIT       P26
      00000090H.7 SFRSYM    DATA     BIT       P17
      000000F8H.2 SFRSYM    DATA     BIT       P72
      000000E8H.3 SFRSYM    DATA     BIT       P63
      000000C8H.4 SFRSYM    DATA     BIT       P54
      000000C0H.5 SFRSYM    DATA     BIT       P45
      000000B0H.6 SFRSYM    DATA     BIT       P36
      000000A0H.7 SFRSYM    DATA     BIT       P27
      000000F8H.3 SFRSYM    DATA     BIT       P73
      000000E8H.4 SFRSYM    DATA     BIT       P64
      000000C8H.5 SFRSYM    DATA     BIT       P55
      000000C0H.6 SFRSYM    DATA     BIT       P46
      000000B0H.7 SFRSYM    DATA     BIT       P37
      000000F8H.4 SFRSYM    DATA     BIT       P74
      000000E8H.5 SFRSYM    DATA     BIT       P65
      000000C8H.6 SFRSYM    DATA     BIT       P56
      000000C0H.7 SFRSYM    DATA     BIT       P47
      000000F8H.5 SFRSYM    DATA     BIT       P75
      000000E8H.6 SFRSYM    DATA     BIT       P66
      000000C8H.7 SFRSYM    DATA     BIT       P57
      000000F8H.6 SFRSYM    DATA     BIT       P76
LX51 LINKER/LOCATER V4.41                                                             05/12/2022  17:30:48  PAGE 38


      000000E8H.7 SFRSYM    DATA     BIT       P67
      000000F8H.7 SFRSYM    DATA     BIT       P77
      00000088H.1 SFRSYM    DATA     BIT       IE0
      00000088H.3 SFRSYM    DATA     BIT       IE1
      000000AFH   SFRSYM    DATA     BYTE      IE2
      000000F0H   SFRSYM    DATA     BYTE      B
      0000008EH   SFRSYM    DATA     BYTE      AUXR
      000000FCH   SFRSYM    DATA     BYTE      USBADR
      000000C7H   SFRSYM    DATA     BYTE      IAP_CONTR
      000000ECH   SFRSYM    DATA     BYTE      USBDAT
      000000DCH   SFRSYM    DATA     BYTE      USBCLK
      000000E0H   SFRSYM    DATA     BYTE      ACC
      000000A8H.1 SFRSYM    DATA     BIT       ET0
      000000A8H.3 SFRSYM    DATA     BIT       ET1
      00000088H.5 SFRSYM    DATA     BIT       TF0
      000000FFH   SFRSYM    DATA     BYTE      RSTCFG
      000000B5H   SFRSYM    DATA     BYTE      IP2
      00000088H.7 SFRSYM    DATA     BIT       TF1
      000000F4H   SFRSYM    DATA     BYTE      USBCON
      000000DFH   SFRSYM    DATA     BYTE      IP3
      00000098H.2 SFRSYM    DATA     BIT       RB8
      0000008CH   SFRSYM    DATA     BYTE      TH0
      000000A8H   SFRSYM    DATA     BIT       EX0
      0000008DH   SFRSYM    DATA     BYTE      TH1
      00000088H   SFRSYM    DATA     BIT       IT0
      000000D6H   SFRSYM    DATA     BYTE      T2H
      000000A8H.2 SFRSYM    DATA     BIT       EX1
      00000098H.3 SFRSYM    DATA     BIT       TB8
      00000088H.2 SFRSYM    DATA     BIT       IT1
      000000D4H   SFRSYM    DATA     BYTE      T3H
      000000D0H   SFRSYM    DATA     BIT       P
      000000D2H   SFRSYM    DATA     BYTE      T4H
      00000098H.7 SFRSYM    DATA     BIT       SM0
      0000008AH   SFRSYM    DATA     BYTE      TL0
      00000098H.6 SFRSYM    DATA     BIT       SM1
      0000008BH   SFRSYM    DATA     BYTE      TL1
      000000D7H   SFRSYM    DATA     BYTE      T2L
      00000098H.5 SFRSYM    DATA     BIT       SM2
      000000D5H   SFRSYM    DATA     BYTE      T3L
      000000D3H   SFRSYM    DATA     BYTE      T4L
      000000B8H.1 SFRSYM    DATA     BIT       PT0
      000000D0H.3 SFRSYM    DATA     BIT       RS0
      000000B8H.3 SFRSYM    DATA     BIT       PT1
      000000D0H.4 SFRSYM    DATA     BIT       RS1
      000000C2H   SFRSYM    DATA     BYTE      IAP_DATA
      00000088H.4 SFRSYM    DATA     BIT       TR0
      00000088H.6 SFRSYM    DATA     BIT       TR1
      000000C1H   SFRSYM    DATA     BYTE      WDT_CONTR
      000000B8H   SFRSYM    DATA     BIT       PX0
      000000B8H.2 SFRSYM    DATA     BIT       PX1
      0000009FH   SFRSYM    DATA     BYTE      IRTRIM
      00000083H   SFRSYM    DATA     BYTE      DPH
      000000D1H   SFRSYM    DATA     BYTE      T4T3M
      000000BEH   SFRSYM    DATA     BYTE      ADC_RESL
      00000082H   SFRSYM    DATA     BYTE      DPL
      000000CDH   SFRSYM    DATA     BYTE      SPSTAT
      000000B7H   SFRSYM    DATA     BYTE      IPH
      0000009BH   SFRSYM    DATA     BYTE      S2BUF
      000000ADH   SFRSYM    DATA     BYTE      S3BUF
      00000098H.4 SFRSYM    DATA     BIT       REN
      00000085H   SFRSYM    DATA     BYTE      S4BUF
      0000009AH   SFRSYM    DATA     BYTE      S2CON
      000000E3H   SFRSYM    DATA     BYTE      DPS
      000000ACH   SFRSYM    DATA     BYTE      S3CON
      00000084H   SFRSYM    DATA     BYTE      S4CON
LX51 LINKER/LOCATER V4.41                                                             05/12/2022  17:30:48  PAGE 39


      000000EFH   SFRSYM    DATA     BYTE      AUXINTIF
      000000B9H   SFRSYM    DATA     BYTE      SADEN
      000000A9H   SFRSYM    DATA     BYTE      SADDR
      000000C6H   SFRSYM    DATA     BYTE      IAP_TRIG
      000000D0H.5 SFRSYM    DATA     BIT       F0
      0000009DH   SFRSYM    DATA     BYTE      IRCBAND
      000000D0H   SFRSYM    DATA     BYTE      PSW
      000000CFH   SFRSYM    DATA     BYTE      SPDAT
      00000094H   SFRSYM    DATA     BYTE      P0M0

      010012E9H   BLOCK     CODE     ---       LVL=0
      02000226H   SYMBOL    XDATA    BYTE      uart_n
      02000227H   SYMBOL    XDATA    BYTE      uart_rx_pin
      02000228H   SYMBOL    XDATA    BYTE      uart_tx_pin
      02000229H   SYMBOL    XDATA    DWORD     baud
      0200022DH   SYMBOL    XDATA    BYTE      tim_n
      010012F4H   BLOCK     CODE     NEAR LAB  LVL=1
      00000004H   SYMBOL    DATA     WORD      brt
      ---         BLOCKEND  ---      ---       LVL=1
      010012E9H   LINE      CODE     ---       #48
      010012F4H   LINE      CODE     ---       #49
      010012F4H   LINE      CODE     ---       #52
      01001323H   LINE      CODE     ---       #54
      01001340H   LINE      CODE     ---       #55
      01001340H   LINE      CODE     ---       #56
      01001340H   LINE      CODE     ---       #57
      01001340H   LINE      CODE     ---       #58
      01001349H   LINE      CODE     ---       #59
      01001349H   LINE      CODE     ---       #60
      0100134CH   LINE      CODE     ---       #61
      0100134CH   LINE      CODE     ---       #62
      0100134EH   LINE      CODE     ---       #63
      01001351H   LINE      CODE     ---       #64
      01001354H   LINE      CODE     ---       #65
      01001356H   LINE      CODE     ---       #66
      0100135BH   LINE      CODE     ---       #67
      0100135DH   LINE      CODE     ---       #68
      01001361H   LINE      CODE     ---       #69
      01001361H   LINE      CODE     ---       #70
      01001364H   LINE      CODE     ---       #71
      01001366H   LINE      CODE     ---       #72
      01001369H   LINE      CODE     ---       #73
      0100136CH   LINE      CODE     ---       #74
      0100136CH   LINE      CODE     ---       #75
      0100136FH   LINE      CODE     ---       #76
      0100137BH   LINE      CODE     ---       #77
      0100137BH   LINE      CODE     ---       #78
      0100137BH   LINE      CODE     ---       #79
      0100137DH   LINE      CODE     ---       #80
      01001388H   LINE      CODE     ---       #81
      01001388H   LINE      CODE     ---       #82
      0100138BH   LINE      CODE     ---       #83
      0100138DH   LINE      CODE     ---       #84
      01001399H   LINE      CODE     ---       #85
      01001399H   LINE      CODE     ---       #86
      0100139CH   LINE      CODE     ---       #87
      0100139EH   LINE      CODE     ---       #88
      010013AAH   LINE      CODE     ---       #89
      010013AAH   LINE      CODE     ---       #90
      010013ADH   LINE      CODE     ---       #91
      010013ADH   LINE      CODE     ---       #92
      010013B2H   LINE      CODE     ---       #93
      010013B4H   LINE      CODE     ---       #94
      010013B5H   LINE      CODE     ---       #95
      010013B5H   LINE      CODE     ---       #97
LX51 LINKER/LOCATER V4.41                                                             05/12/2022  17:30:48  PAGE 40


      010013B5H   LINE      CODE     ---       #98
      010013B5H   LINE      CODE     ---       #99
      010013BCH   LINE      CODE     ---       #100
      010013BCH   LINE      CODE     ---       #101
      010013BFH   LINE      CODE     ---       #102
      010013C1H   LINE      CODE     ---       #103
      010013C4H   LINE      CODE     ---       #104
      010013C7H   LINE      CODE     ---       #105
      010013C7H   LINE      CODE     ---       #107
      010013CAH   LINE      CODE     ---       #108
      010013D7H   LINE      CODE     ---       #109
      010013D7H   LINE      CODE     ---       #110
      010013D7H   LINE      CODE     ---       #111
      010013D9H   LINE      CODE     ---       #112
      010013E4H   LINE      CODE     ---       #113
      010013E4H   LINE      CODE     ---       #114
      010013E7H   LINE      CODE     ---       #115
      010013E7H   LINE      CODE     ---       #117
      010013EAH   LINE      CODE     ---       #118
      010013EFH   LINE      CODE     ---       #119
      010013F0H   LINE      CODE     ---       #120
      010013F0H   LINE      CODE     ---       #122
      010013F0H   LINE      CODE     ---       #123
      010013F0H   LINE      CODE     ---       #124
      010013F8H   LINE      CODE     ---       #125
      010013F8H   LINE      CODE     ---       #126
      010013FBH   LINE      CODE     ---       #127
      010013FDH   LINE      CODE     ---       #128
      01001400H   LINE      CODE     ---       #129
      01001403H   LINE      CODE     ---       #130
      01001405H   LINE      CODE     ---       #131
      01001409H   LINE      CODE     ---       #132
      01001409H   LINE      CODE     ---       #133
      0100140CH   LINE      CODE     ---       #134
      0100140EH   LINE      CODE     ---       #135
      01001411H   LINE      CODE     ---       #136
      01001414H   LINE      CODE     ---       #137
      01001414H   LINE      CODE     ---       #139
      01001417H   LINE      CODE     ---       #140
      01001424H   LINE      CODE     ---       #141
      01001424H   LINE      CODE     ---       #142
      01001424H   LINE      CODE     ---       #143
      01001426H   LINE      CODE     ---       #144
      01001431H   LINE      CODE     ---       #145
      01001431H   LINE      CODE     ---       #146
      01001434H   LINE      CODE     ---       #147
      01001434H   LINE      CODE     ---       #149
      01001437H   LINE      CODE     ---       #150
      0100143CH   LINE      CODE     ---       #151
      0100143DH   LINE      CODE     ---       #152
      0100143DH   LINE      CODE     ---       #154
      0100143DH   LINE      CODE     ---       #155
      0100143DH   LINE      CODE     ---       #156
      01001445H   LINE      CODE     ---       #157
      01001445H   LINE      CODE     ---       #158
      01001448H   LINE      CODE     ---       #159
      0100144AH   LINE      CODE     ---       #160
      0100144DH   LINE      CODE     ---       #161
      01001450H   LINE      CODE     ---       #162
      01001452H   LINE      CODE     ---       #163
      01001456H   LINE      CODE     ---       #164
      01001456H   LINE      CODE     ---       #165
      01001459H   LINE      CODE     ---       #166
      0100145BH   LINE      CODE     ---       #167
      0100145EH   LINE      CODE     ---       #168
LX51 LINKER/LOCATER V4.41                                                             05/12/2022  17:30:48  PAGE 41


      01001461H   LINE      CODE     ---       #169
      01001461H   LINE      CODE     ---       #171
      01001464H   LINE      CODE     ---       #172
      01001471H   LINE      CODE     ---       #173
      01001471H   LINE      CODE     ---       #174
      01001471H   LINE      CODE     ---       #175
      01001473H   LINE      CODE     ---       #176
      0100147EH   LINE      CODE     ---       #177
      0100147EH   LINE      CODE     ---       #178
      01001481H   LINE      CODE     ---       #179
      01001484H   LINE      CODE     ---       #180
      01001487H   LINE      CODE     ---       #181
      01001487H   LINE      CODE     ---       #182
      0100148AH   LINE      CODE     ---       #183
      0100148FH   LINE      CODE     ---       #184
      0100148FH   LINE      CODE     ---       #185
      0100148FH   LINE      CODE     ---       #187
      0100148FH   LINE      CODE     ---       #189
      ---         BLOCKEND  ---      ---       LVL=0
      00000007H   SYMBOL    DATA     BYTE      uart_n
      00000005H   SYMBOL    DATA     BYTE      dat
      00000006H   SYMBOL    DATA     BYTE      uart_n
      00000006H   SYMBOL    DATA     BYTE      uart_n

      ---         MODULE    ---      ---       ZF_ADC
      01001718H   PUBLIC    CODE     ---       _adc_once
      00000093H   SFRSYM    DATA     BYTE      P0M1
      00000092H   SFRSYM    DATA     BYTE      P1M0
      00000096H   SFRSYM    DATA     BYTE      P2M0
      00000091H   SFRSYM    DATA     BYTE      P1M1
      00000080H   SFRSYM    DATA     BYTE      P0
      000000B2H   SFRSYM    DATA     BYTE      P3M0
      00000095H   SFRSYM    DATA     BYTE      P2M1
      00000090H   SFRSYM    DATA     BYTE      P1
      000000B4H   SFRSYM    DATA     BYTE      P4M0
      000000B1H   SFRSYM    DATA     BYTE      P3M1
      000000A0H   SFRSYM    DATA     BYTE      P2
      000000CAH   SFRSYM    DATA     BYTE      P5M0
      000000B3H   SFRSYM    DATA     BYTE      P4M1
      000000B0H   SFRSYM    DATA     BYTE      P3
      000000ABH   SFRSYM    DATA     BYTE      WKTCH
      000000D0H.6 SFRSYM    DATA     BIT       AC
      000000CCH   SFRSYM    DATA     BYTE      P6M0
      000000C9H   SFRSYM    DATA     BYTE      P5M1
      000000C0H   SFRSYM    DATA     BYTE      P4
      000000E2H   SFRSYM    DATA     BYTE      P7M0
      000000CBH   SFRSYM    DATA     BYTE      P6M1
      000000C8H   SFRSYM    DATA     BYTE      P5
      000000E8H   SFRSYM    DATA     BYTE      P6
      000000E1H   SFRSYM    DATA     BYTE      P7M1
      000000A8H.7 SFRSYM    DATA     BIT       EA
      000000F8H   SFRSYM    DATA     BYTE      P7
      000000AAH   SFRSYM    DATA     BYTE      WKTCL
      000000CEH   SFRSYM    DATA     BYTE      SPCTL
      000000A2H   SFRSYM    DATA     BYTE      P_SW1
      000000BAH   SFRSYM    DATA     BYTE      P_SW2
      000000E5H   SFRSYM    DATA     BYTE      DPH1
      000000A8H.5 SFRSYM    DATA     BIT       EADC
      000000A8H   SFRSYM    DATA     BYTE      IE
      000000C5H   SFRSYM    DATA     BYTE      IAP_CMD
      000000E4H   SFRSYM    DATA     BYTE      DPL1
      000000BDH   SFRSYM    DATA     BYTE      ADC_RES
      000000B6H   SFRSYM    DATA     BYTE      IP2H
      000000EEH   SFRSYM    DATA     BYTE      IP3H
      000000AEH   SFRSYM    DATA     BYTE      TA
LX51 LINKER/LOCATER V4.41                                                             05/12/2022  17:30:48  PAGE 42


      0000008FH   SFRSYM    DATA     BYTE      INTCLKO
      000000A8H.4 SFRSYM    DATA     BIT       ES
      000000B8H.5 SFRSYM    DATA     BIT       PADC
      000000B8H   SFRSYM    DATA     BYTE      IP
      000000DEH   SFRSYM    DATA     BYTE      ADCCFG
      00000098H   SFRSYM    DATA     BIT       RI
      000000D0H.7 SFRSYM    DATA     BIT       CY
      00000098H.1 SFRSYM    DATA     BIT       TI
      000000C3H   SFRSYM    DATA     BYTE      IAP_ADDRH
      000000B8H.4 SFRSYM    DATA     BIT       PS
      00000081H   SFRSYM    DATA     BYTE      SP
      000000C4H   SFRSYM    DATA     BYTE      IAP_ADDRL
      000000D0H.2 SFRSYM    DATA     BIT       OV
      000000B8H.7 SFRSYM    DATA     BIT       PPCA
      0000009EH   SFRSYM    DATA     BYTE      LIRTRIM
      000000E6H   SFRSYM    DATA     BYTE      CMPCR1
      000000E7H   SFRSYM    DATA     BYTE      CMPCR2
      000000A8H.6 SFRSYM    DATA     BIT       ELVD
      00000080H   SFRSYM    DATA     BIT       P00
      000000BCH   SFRSYM    DATA     BYTE      ADC_CONTR
      00000099H   SFRSYM    DATA     BYTE      SBUF
      00000090H   SFRSYM    DATA     BIT       P10
      00000087H   SFRSYM    DATA     BYTE      PCON
      00000080H.1 SFRSYM    DATA     BIT       P01
      000000A0H   SFRSYM    DATA     BIT       P20
      00000090H.1 SFRSYM    DATA     BIT       P11
      00000080H.2 SFRSYM    DATA     BIT       P02
      000000F5H   SFRSYM    DATA     BYTE      IAP_TPS
      000000B0H   SFRSYM    DATA     BIT       P30
      000000A0H.1 SFRSYM    DATA     BIT       P21
      00000090H.2 SFRSYM    DATA     BIT       P12
      00000080H.3 SFRSYM    DATA     BIT       P03
      000000C0H   SFRSYM    DATA     BIT       P40
      000000B0H.1 SFRSYM    DATA     BIT       P31
      000000A0H.2 SFRSYM    DATA     BIT       P22
      00000098H   SFRSYM    DATA     BYTE      SCON
      00000090H.3 SFRSYM    DATA     BIT       P13
      00000080H.4 SFRSYM    DATA     BIT       P04
      000000C8H   SFRSYM    DATA     BIT       P50
      000000C0H.1 SFRSYM    DATA     BIT       P41
      000000B0H.2 SFRSYM    DATA     BIT       P32
      000000A0H.3 SFRSYM    DATA     BIT       P23
      00000090H.4 SFRSYM    DATA     BIT       P14
      00000089H   SFRSYM    DATA     BYTE      TMOD
      00000088H   SFRSYM    DATA     BYTE      TCON
      00000080H.5 SFRSYM    DATA     BIT       P05
      000000E8H   SFRSYM    DATA     BIT       P60
      000000C8H.1 SFRSYM    DATA     BIT       P51
      000000C0H.2 SFRSYM    DATA     BIT       P42
      000000B0H.3 SFRSYM    DATA     BIT       P33
      000000A0H.4 SFRSYM    DATA     BIT       P24
      00000090H.5 SFRSYM    DATA     BIT       P15
      00000080H.6 SFRSYM    DATA     BIT       P06
      000000F8H   SFRSYM    DATA     BIT       P70
      000000E8H.1 SFRSYM    DATA     BIT       P61
      000000C8H.2 SFRSYM    DATA     BIT       P52
      000000C0H.3 SFRSYM    DATA     BIT       P43
      000000B8H.6 SFRSYM    DATA     BIT       PLVD
      000000B0H.4 SFRSYM    DATA     BIT       P34
      000000A0H.5 SFRSYM    DATA     BIT       P25
      00000090H.6 SFRSYM    DATA     BIT       P16
      00000080H.7 SFRSYM    DATA     BIT       P07
      000000F8H.1 SFRSYM    DATA     BIT       P71
      000000E8H.2 SFRSYM    DATA     BIT       P62
      000000C8H.3 SFRSYM    DATA     BIT       P53
LX51 LINKER/LOCATER V4.41                                                             05/12/2022  17:30:48  PAGE 43


      000000C0H.4 SFRSYM    DATA     BIT       P44
      000000B0H.5 SFRSYM    DATA     BIT       P35
      000000A0H.6 SFRSYM    DATA     BIT       P26
      00000090H.7 SFRSYM    DATA     BIT       P17
      000000F8H.2 SFRSYM    DATA     BIT       P72
      000000E8H.3 SFRSYM    DATA     BIT       P63
      000000C8H.4 SFRSYM    DATA     BIT       P54
      000000C0H.5 SFRSYM    DATA     BIT       P45
      000000B0H.6 SFRSYM    DATA     BIT       P36
      000000A0H.7 SFRSYM    DATA     BIT       P27
      000000F8H.3 SFRSYM    DATA     BIT       P73
      000000E8H.4 SFRSYM    DATA     BIT       P64
      000000C8H.5 SFRSYM    DATA     BIT       P55
      000000C0H.6 SFRSYM    DATA     BIT       P46
      000000B0H.7 SFRSYM    DATA     BIT       P37
      000000F8H.4 SFRSYM    DATA     BIT       P74
      000000E8H.5 SFRSYM    DATA     BIT       P65
      000000C8H.6 SFRSYM    DATA     BIT       P56
      000000C0H.7 SFRSYM    DATA     BIT       P47
      000000F8H.5 SFRSYM    DATA     BIT       P75
      000000E8H.6 SFRSYM    DATA     BIT       P66
      000000C8H.7 SFRSYM    DATA     BIT       P57
      000000F8H.6 SFRSYM    DATA     BIT       P76
      000000E8H.7 SFRSYM    DATA     BIT       P67
      000000F8H.7 SFRSYM    DATA     BIT       P77
      00000088H.1 SFRSYM    DATA     BIT       IE0
      00000088H.3 SFRSYM    DATA     BIT       IE1
      000000AFH   SFRSYM    DATA     BYTE      IE2
      000000F0H   SFRSYM    DATA     BYTE      B
      0000008EH   SFRSYM    DATA     BYTE      AUXR
      000000FCH   SFRSYM    DATA     BYTE      USBADR
      000000C7H   SFRSYM    DATA     BYTE      IAP_CONTR
      000000ECH   SFRSYM    DATA     BYTE      USBDAT
      000000DCH   SFRSYM    DATA     BYTE      USBCLK
      000000E0H   SFRSYM    DATA     BYTE      ACC
      000000A8H.1 SFRSYM    DATA     BIT       ET0
      000000A8H.3 SFRSYM    DATA     BIT       ET1
      00000088H.5 SFRSYM    DATA     BIT       TF0
      000000FFH   SFRSYM    DATA     BYTE      RSTCFG
      000000B5H   SFRSYM    DATA     BYTE      IP2
      00000088H.7 SFRSYM    DATA     BIT       TF1
      000000F4H   SFRSYM    DATA     BYTE      USBCON
      000000DFH   SFRSYM    DATA     BYTE      IP3
      00000098H.2 SFRSYM    DATA     BIT       RB8
      0000008CH   SFRSYM    DATA     BYTE      TH0
      000000A8H   SFRSYM    DATA     BIT       EX0
      0000008DH   SFRSYM    DATA     BYTE      TH1
      00000088H   SFRSYM    DATA     BIT       IT0
      000000D6H   SFRSYM    DATA     BYTE      T2H
      000000A8H.2 SFRSYM    DATA     BIT       EX1
      00000098H.3 SFRSYM    DATA     BIT       TB8
      00000088H.2 SFRSYM    DATA     BIT       IT1
      000000D4H   SFRSYM    DATA     BYTE      T3H
      000000D0H   SFRSYM    DATA     BIT       P
      000000D2H   SFRSYM    DATA     BYTE      T4H
      00000098H.7 SFRSYM    DATA     BIT       SM0
      0000008AH   SFRSYM    DATA     BYTE      TL0
      00000098H.6 SFRSYM    DATA     BIT       SM1
      0000008BH   SFRSYM    DATA     BYTE      TL1
      000000D7H   SFRSYM    DATA     BYTE      T2L
      00000098H.5 SFRSYM    DATA     BIT       SM2
      000000D5H   SFRSYM    DATA     BYTE      T3L
      000000D3H   SFRSYM    DATA     BYTE      T4L
      000000B8H.1 SFRSYM    DATA     BIT       PT0
      000000D0H.3 SFRSYM    DATA     BIT       RS0
LX51 LINKER/LOCATER V4.41                                                             05/12/2022  17:30:48  PAGE 44


      000000B8H.3 SFRSYM    DATA     BIT       PT1
      000000D0H.4 SFRSYM    DATA     BIT       RS1
      000000C2H   SFRSYM    DATA     BYTE      IAP_DATA
      00000088H.4 SFRSYM    DATA     BIT       TR0
      00000088H.6 SFRSYM    DATA     BIT       TR1
      000000C1H   SFRSYM    DATA     BYTE      WDT_CONTR
      000000B8H   SFRSYM    DATA     BIT       PX0
      000000B8H.2 SFRSYM    DATA     BIT       PX1
      0000009FH   SFRSYM    DATA     BYTE      IRTRIM
      00000083H   SFRSYM    DATA     BYTE      DPH
      000000D1H   SFRSYM    DATA     BYTE      T4T3M
      000000BEH   SFRSYM    DATA     BYTE      ADC_RESL
      00000082H   SFRSYM    DATA     BYTE      DPL
      000000CDH   SFRSYM    DATA     BYTE      SPSTAT
      000000B7H   SFRSYM    DATA     BYTE      IPH
      0000009BH   SFRSYM    DATA     BYTE      S2BUF
      000000ADH   SFRSYM    DATA     BYTE      S3BUF
      00000098H.4 SFRSYM    DATA     BIT       REN
      00000085H   SFRSYM    DATA     BYTE      S4BUF
      0000009AH   SFRSYM    DATA     BYTE      S2CON
      000000E3H   SFRSYM    DATA     BYTE      DPS
      000000ACH   SFRSYM    DATA     BYTE      S3CON
      00000084H   SFRSYM    DATA     BYTE      S4CON
      000000EFH   SFRSYM    DATA     BYTE      AUXINTIF
      000000B9H   SFRSYM    DATA     BYTE      SADEN
      000000A9H   SFRSYM    DATA     BYTE      SADDR
      000000C6H   SFRSYM    DATA     BYTE      IAP_TRIG
      000000D0H.5 SFRSYM    DATA     BIT       F0
      0000009DH   SFRSYM    DATA     BYTE      IRCBAND
      000000D0H   SFRSYM    DATA     BYTE      PSW
      000000CFH   SFRSYM    DATA     BYTE      SPDAT
      00000094H   SFRSYM    DATA     BYTE      P0M0
      00000007H   SYMBOL    DATA     BYTE      adcn
      00000005H   SYMBOL    DATA     BYTE      speed

      01001718H   BLOCK     CODE     ---       LVL=0
      00000007H   SYMBOL    DATA     BYTE      adcn
      00000001H   SYMBOL    DATA     BYTE      resolution
      0100171AH   BLOCK     CODE     NEAR LAB  LVL=1
      00000006H   SYMBOL    DATA     WORD      adc_value
      ---         BLOCKEND  ---      ---       LVL=1
      01001718H   LINE      CODE     ---       #66
      0100171AH   LINE      CODE     ---       #67
      0100171AH   LINE      CODE     ---       #70
      0100171DH   LINE      CODE     ---       #71
      01001720H   LINE      CODE     ---       #73
      01001723H   LINE      CODE     ---       #74
      01001728H   LINE      CODE     ---       #75
      0100172BH   LINE      CODE     ---       #77
      0100172DH   LINE      CODE     ---       #78
      0100172FH   LINE      CODE     ---       #79
      01001733H   LINE      CODE     ---       #81
      01001736H   LINE      CODE     ---       #82
      01001738H   LINE      CODE     ---       #84
      01001748H   LINE      CODE     ---       #87
      01001748H   LINE      CODE     ---       #88
      ---         BLOCKEND  ---      ---       LVL=0

      ---         MODULE    ---      ---       ZF_TIM
      00000093H   SFRSYM    DATA     BYTE      P0M1
      00000092H   SFRSYM    DATA     BYTE      P1M0
      00000096H   SFRSYM    DATA     BYTE      P2M0
      00000091H   SFRSYM    DATA     BYTE      P1M1
      00000080H   SFRSYM    DATA     BYTE      P0
      000000B2H   SFRSYM    DATA     BYTE      P3M0
LX51 LINKER/LOCATER V4.41                                                             05/12/2022  17:30:48  PAGE 45


      00000095H   SFRSYM    DATA     BYTE      P2M1
      00000090H   SFRSYM    DATA     BYTE      P1
      000000B4H   SFRSYM    DATA     BYTE      P4M0
      000000B1H   SFRSYM    DATA     BYTE      P3M1
      000000A0H   SFRSYM    DATA     BYTE      P2
      000000CAH   SFRSYM    DATA     BYTE      P5M0
      000000B3H   SFRSYM    DATA     BYTE      P4M1
      000000B0H   SFRSYM    DATA     BYTE      P3
      000000ABH   SFRSYM    DATA     BYTE      WKTCH
      000000D0H.6 SFRSYM    DATA     BIT       AC
      000000CCH   SFRSYM    DATA     BYTE      P6M0
      000000C9H   SFRSYM    DATA     BYTE      P5M1
      000000C0H   SFRSYM    DATA     BYTE      P4
      000000E2H   SFRSYM    DATA     BYTE      P7M0
      000000CBH   SFRSYM    DATA     BYTE      P6M1
      000000C8H   SFRSYM    DATA     BYTE      P5
      000000E8H   SFRSYM    DATA     BYTE      P6
      000000E1H   SFRSYM    DATA     BYTE      P7M1
      000000A8H.7 SFRSYM    DATA     BIT       EA
      000000F8H   SFRSYM    DATA     BYTE      P7
      000000AAH   SFRSYM    DATA     BYTE      WKTCL
      000000CEH   SFRSYM    DATA     BYTE      SPCTL
      000000A2H   SFRSYM    DATA     BYTE      P_SW1
      000000BAH   SFRSYM    DATA     BYTE      P_SW2
      000000E5H   SFRSYM    DATA     BYTE      DPH1
      000000A8H.5 SFRSYM    DATA     BIT       EADC
      000000A8H   SFRSYM    DATA     BYTE      IE
      000000C5H   SFRSYM    DATA     BYTE      IAP_CMD
      000000E4H   SFRSYM    DATA     BYTE      DPL1
      000000BDH   SFRSYM    DATA     BYTE      ADC_RES
      000000B6H   SFRSYM    DATA     BYTE      IP2H
      000000EEH   SFRSYM    DATA     BYTE      IP3H
      000000AEH   SFRSYM    DATA     BYTE      TA
      0000008FH   SFRSYM    DATA     BYTE      INTCLKO
      000000A8H.4 SFRSYM    DATA     BIT       ES
      000000B8H.5 SFRSYM    DATA     BIT       PADC
      000000B8H   SFRSYM    DATA     BYTE      IP
      000000DEH   SFRSYM    DATA     BYTE      ADCCFG
      00000098H   SFRSYM    DATA     BIT       RI
      000000D0H.7 SFRSYM    DATA     BIT       CY
      00000098H.1 SFRSYM    DATA     BIT       TI
      000000C3H   SFRSYM    DATA     BYTE      IAP_ADDRH
      000000B8H.4 SFRSYM    DATA     BIT       PS
      00000081H   SFRSYM    DATA     BYTE      SP
      000000C4H   SFRSYM    DATA     BYTE      IAP_ADDRL
      000000D0H.2 SFRSYM    DATA     BIT       OV
      000000B8H.7 SFRSYM    DATA     BIT       PPCA
      0000009EH   SFRSYM    DATA     BYTE      LIRTRIM
      000000E6H   SFRSYM    DATA     BYTE      CMPCR1
      000000E7H   SFRSYM    DATA     BYTE      CMPCR2
      000000A8H.6 SFRSYM    DATA     BIT       ELVD
      00000080H   SFRSYM    DATA     BIT       P00
      000000BCH   SFRSYM    DATA     BYTE      ADC_CONTR
      00000099H   SFRSYM    DATA     BYTE      SBUF
      00000090H   SFRSYM    DATA     BIT       P10
      00000087H   SFRSYM    DATA     BYTE      PCON
      00000080H.1 SFRSYM    DATA     BIT       P01
      000000A0H   SFRSYM    DATA     BIT       P20
      00000090H.1 SFRSYM    DATA     BIT       P11
      00000080H.2 SFRSYM    DATA     BIT       P02
      000000F5H   SFRSYM    DATA     BYTE      IAP_TPS
      000000B0H   SFRSYM    DATA     BIT       P30
      000000A0H.1 SFRSYM    DATA     BIT       P21
      00000090H.2 SFRSYM    DATA     BIT       P12
      00000080H.3 SFRSYM    DATA     BIT       P03
LX51 LINKER/LOCATER V4.41                                                             05/12/2022  17:30:48  PAGE 46


      000000C0H   SFRSYM    DATA     BIT       P40
      000000B0H.1 SFRSYM    DATA     BIT       P31
      000000A0H.2 SFRSYM    DATA     BIT       P22
      00000098H   SFRSYM    DATA     BYTE      SCON
      00000090H.3 SFRSYM    DATA     BIT       P13
      00000080H.4 SFRSYM    DATA     BIT       P04
      000000C8H   SFRSYM    DATA     BIT       P50
      000000C0H.1 SFRSYM    DATA     BIT       P41
      000000B0H.2 SFRSYM    DATA     BIT       P32
      000000A0H.3 SFRSYM    DATA     BIT       P23
      00000090H.4 SFRSYM    DATA     BIT       P14
      00000089H   SFRSYM    DATA     BYTE      TMOD
      00000088H   SFRSYM    DATA     BYTE      TCON
      00000080H.5 SFRSYM    DATA     BIT       P05
      000000E8H   SFRSYM    DATA     BIT       P60
      000000C8H.1 SFRSYM    DATA     BIT       P51
      000000C0H.2 SFRSYM    DATA     BIT       P42
      000000B0H.3 SFRSYM    DATA     BIT       P33
      000000A0H.4 SFRSYM    DATA     BIT       P24
      00000090H.5 SFRSYM    DATA     BIT       P15
      00000080H.6 SFRSYM    DATA     BIT       P06
      000000F8H   SFRSYM    DATA     BIT       P70
      000000E8H.1 SFRSYM    DATA     BIT       P61
      000000C8H.2 SFRSYM    DATA     BIT       P52
      000000C0H.3 SFRSYM    DATA     BIT       P43
      000000B8H.6 SFRSYM    DATA     BIT       PLVD
      000000B0H.4 SFRSYM    DATA     BIT       P34
      000000A0H.5 SFRSYM    DATA     BIT       P25
      00000090H.6 SFRSYM    DATA     BIT       P16
      00000080H.7 SFRSYM    DATA     BIT       P07
      000000F8H.1 SFRSYM    DATA     BIT       P71
      000000E8H.2 SFRSYM    DATA     BIT       P62
      000000C8H.3 SFRSYM    DATA     BIT       P53
      000000C0H.4 SFRSYM    DATA     BIT       P44
      000000B0H.5 SFRSYM    DATA     BIT       P35
      000000A0H.6 SFRSYM    DATA     BIT       P26
      00000090H.7 SFRSYM    DATA     BIT       P17
      000000F8H.2 SFRSYM    DATA     BIT       P72
      000000E8H.3 SFRSYM    DATA     BIT       P63
      000000C8H.4 SFRSYM    DATA     BIT       P54
      000000C0H.5 SFRSYM    DATA     BIT       P45
      000000B0H.6 SFRSYM    DATA     BIT       P36
      000000A0H.7 SFRSYM    DATA     BIT       P27
      000000F8H.3 SFRSYM    DATA     BIT       P73
      000000E8H.4 SFRSYM    DATA     BIT       P64
      000000C8H.5 SFRSYM    DATA     BIT       P55
      000000C0H.6 SFRSYM    DATA     BIT       P46
      000000B0H.7 SFRSYM    DATA     BIT       P37
      000000F8H.4 SFRSYM    DATA     BIT       P74
      000000E8H.5 SFRSYM    DATA     BIT       P65
      000000C8H.6 SFRSYM    DATA     BIT       P56
      000000C0H.7 SFRSYM    DATA     BIT       P47
      000000F8H.5 SFRSYM    DATA     BIT       P75
      000000E8H.6 SFRSYM    DATA     BIT       P66
      000000C8H.7 SFRSYM    DATA     BIT       P57
      000000F8H.6 SFRSYM    DATA     BIT       P76
      000000E8H.7 SFRSYM    DATA     BIT       P67
      000000F8H.7 SFRSYM    DATA     BIT       P77
      00000088H.1 SFRSYM    DATA     BIT       IE0
      00000088H.3 SFRSYM    DATA     BIT       IE1
      000000AFH   SFRSYM    DATA     BYTE      IE2
      000000F0H   SFRSYM    DATA     BYTE      B
      0000008EH   SFRSYM    DATA     BYTE      AUXR
      000000FCH   SFRSYM    DATA     BYTE      USBADR
      000000C7H   SFRSYM    DATA     BYTE      IAP_CONTR
LX51 LINKER/LOCATER V4.41                                                             05/12/2022  17:30:48  PAGE 47


      000000ECH   SFRSYM    DATA     BYTE      USBDAT
      000000DCH   SFRSYM    DATA     BYTE      USBCLK
      000000E0H   SFRSYM    DATA     BYTE      ACC
      000000A8H.1 SFRSYM    DATA     BIT       ET0
      000000A8H.3 SFRSYM    DATA     BIT       ET1
      00000088H.5 SFRSYM    DATA     BIT       TF0
      000000FFH   SFRSYM    DATA     BYTE      RSTCFG
      000000B5H   SFRSYM    DATA     BYTE      IP2
      00000088H.7 SFRSYM    DATA     BIT       TF1
      000000F4H   SFRSYM    DATA     BYTE      USBCON
      000000DFH   SFRSYM    DATA     BYTE      IP3
      00000098H.2 SFRSYM    DATA     BIT       RB8
      0000008CH   SFRSYM    DATA     BYTE      TH0
      000000A8H   SFRSYM    DATA     BIT       EX0
      0000008DH   SFRSYM    DATA     BYTE      TH1
      00000088H   SFRSYM    DATA     BIT       IT0
      000000D6H   SFRSYM    DATA     BYTE      T2H
      000000A8H.2 SFRSYM    DATA     BIT       EX1
      00000098H.3 SFRSYM    DATA     BIT       TB8
      00000088H.2 SFRSYM    DATA     BIT       IT1
      000000D4H   SFRSYM    DATA     BYTE      T3H
      000000D0H   SFRSYM    DATA     BIT       P
      000000D2H   SFRSYM    DATA     BYTE      T4H
      00000098H.7 SFRSYM    DATA     BIT       SM0
      0000008AH   SFRSYM    DATA     BYTE      TL0
      00000098H.6 SFRSYM    DATA     BIT       SM1
      0000008BH   SFRSYM    DATA     BYTE      TL1
      000000D7H   SFRSYM    DATA     BYTE      T2L
      00000098H.5 SFRSYM    DATA     BIT       SM2
      000000D5H   SFRSYM    DATA     BYTE      T3L
      000000D3H   SFRSYM    DATA     BYTE      T4L
      000000B8H.1 SFRSYM    DATA     BIT       PT0
      000000D0H.3 SFRSYM    DATA     BIT       RS0
      000000B8H.3 SFRSYM    DATA     BIT       PT1
      000000D0H.4 SFRSYM    DATA     BIT       RS1
      000000C2H   SFRSYM    DATA     BYTE      IAP_DATA
      00000088H.4 SFRSYM    DATA     BIT       TR0
      00000088H.6 SFRSYM    DATA     BIT       TR1
      000000C1H   SFRSYM    DATA     BYTE      WDT_CONTR
      000000B8H   SFRSYM    DATA     BIT       PX0
      000000B8H.2 SFRSYM    DATA     BIT       PX1
      0000009FH   SFRSYM    DATA     BYTE      IRTRIM
      00000083H   SFRSYM    DATA     BYTE      DPH
      000000D1H   SFRSYM    DATA     BYTE      T4T3M
      000000BEH   SFRSYM    DATA     BYTE      ADC_RESL
      00000082H   SFRSYM    DATA     BYTE      DPL
      000000CDH   SFRSYM    DATA     BYTE      SPSTAT
      000000B7H   SFRSYM    DATA     BYTE      IPH
      0000009BH   SFRSYM    DATA     BYTE      S2BUF
      000000ADH   SFRSYM    DATA     BYTE      S3BUF
      00000098H.4 SFRSYM    DATA     BIT       REN
      00000085H   SFRSYM    DATA     BYTE      S4BUF
      0000009AH   SFRSYM    DATA     BYTE      S2CON
      000000E3H   SFRSYM    DATA     BYTE      DPS
      000000ACH   SFRSYM    DATA     BYTE      S3CON
      00000084H   SFRSYM    DATA     BYTE      S4CON
      000000EFH   SFRSYM    DATA     BYTE      AUXINTIF
      000000B9H   SFRSYM    DATA     BYTE      SADEN
      000000A9H   SFRSYM    DATA     BYTE      SADDR
      000000C6H   SFRSYM    DATA     BYTE      IAP_TRIG
      000000D0H.5 SFRSYM    DATA     BIT       F0
      0000009DH   SFRSYM    DATA     BYTE      IRCBAND
      000000D0H   SFRSYM    DATA     BYTE      PSW
      000000CFH   SFRSYM    DATA     BYTE      SPDAT
      00000094H   SFRSYM    DATA     BYTE      P0M0
LX51 LINKER/LOCATER V4.41                                                             05/12/2022  17:30:48  PAGE 48


      00000007H   SYMBOL    DATA     BYTE      tim_n
      00000007H   SYMBOL    DATA     BYTE      tim_n
      00000004H   SYMBOL    DATA     WORD      dat
      00000007H   SYMBOL    DATA     BYTE      tim_n
      00000004H   SYMBOL    DATA     WORD      time_ms
      00000006H   SYMBOL    DATA     WORD      temp

      ---         MODULE    ---      ---       ZF_PWM
      00000093H   SFRSYM    DATA     BYTE      P0M1
      00000092H   SFRSYM    DATA     BYTE      P1M0
      00000096H   SFRSYM    DATA     BYTE      P2M0
      00000091H   SFRSYM    DATA     BYTE      P1M1
      00000080H   SFRSYM    DATA     BYTE      P0
      000000B2H   SFRSYM    DATA     BYTE      P3M0
      00000095H   SFRSYM    DATA     BYTE      P2M1
      00000090H   SFRSYM    DATA     BYTE      P1
      000000B4H   SFRSYM    DATA     BYTE      P4M0
      000000B1H   SFRSYM    DATA     BYTE      P3M1
      000000A0H   SFRSYM    DATA     BYTE      P2
      000000CAH   SFRSYM    DATA     BYTE      P5M0
      000000B3H   SFRSYM    DATA     BYTE      P4M1
      000000B0H   SFRSYM    DATA     BYTE      P3
      000000ABH   SFRSYM    DATA     BYTE      WKTCH
      000000D0H.6 SFRSYM    DATA     BIT       AC
      000000CCH   SFRSYM    DATA     BYTE      P6M0
      000000C9H   SFRSYM    DATA     BYTE      P5M1
      000000C0H   SFRSYM    DATA     BYTE      P4
      000000E2H   SFRSYM    DATA     BYTE      P7M0
      000000CBH   SFRSYM    DATA     BYTE      P6M1
      000000C8H   SFRSYM    DATA     BYTE      P5
      000000E8H   SFRSYM    DATA     BYTE      P6
      000000E1H   SFRSYM    DATA     BYTE      P7M1
      000000A8H.7 SFRSYM    DATA     BIT       EA
      000000F8H   SFRSYM    DATA     BYTE      P7
      000000AAH   SFRSYM    DATA     BYTE      WKTCL
      000000CEH   SFRSYM    DATA     BYTE      SPCTL
      000000A2H   SFRSYM    DATA     BYTE      P_SW1
      000000BAH   SFRSYM    DATA     BYTE      P_SW2
      000000E5H   SFRSYM    DATA     BYTE      DPH1
      000000A8H.5 SFRSYM    DATA     BIT       EADC
      000000A8H   SFRSYM    DATA     BYTE      IE
      000000C5H   SFRSYM    DATA     BYTE      IAP_CMD
      000000E4H   SFRSYM    DATA     BYTE      DPL1
      000000BDH   SFRSYM    DATA     BYTE      ADC_RES
      000000B6H   SFRSYM    DATA     BYTE      IP2H
      000000EEH   SFRSYM    DATA     BYTE      IP3H
      000000AEH   SFRSYM    DATA     BYTE      TA
      0000008FH   SFRSYM    DATA     BYTE      INTCLKO
      000000A8H.4 SFRSYM    DATA     BIT       ES
      000000B8H.5 SFRSYM    DATA     BIT       PADC
      000000B8H   SFRSYM    DATA     BYTE      IP
      000000DEH   SFRSYM    DATA     BYTE      ADCCFG
      00000098H   SFRSYM    DATA     BIT       RI
      000000D0H.7 SFRSYM    DATA     BIT       CY
      00000098H.1 SFRSYM    DATA     BIT       TI
      000000C3H   SFRSYM    DATA     BYTE      IAP_ADDRH
      000000B8H.4 SFRSYM    DATA     BIT       PS
      00000081H   SFRSYM    DATA     BYTE      SP
      000000C4H   SFRSYM    DATA     BYTE      IAP_ADDRL
      000000D0H.2 SFRSYM    DATA     BIT       OV
      000000B8H.7 SFRSYM    DATA     BIT       PPCA
      0000009EH   SFRSYM    DATA     BYTE      LIRTRIM
      000000E6H   SFRSYM    DATA     BYTE      CMPCR1
      000000E7H   SFRSYM    DATA     BYTE      CMPCR2
      000000A8H.6 SFRSYM    DATA     BIT       ELVD
LX51 LINKER/LOCATER V4.41                                                             05/12/2022  17:30:48  PAGE 49


      00000080H   SFRSYM    DATA     BIT       P00
      000000BCH   SFRSYM    DATA     BYTE      ADC_CONTR
      00000099H   SFRSYM    DATA     BYTE      SBUF
      00000090H   SFRSYM    DATA     BIT       P10
      00000087H   SFRSYM    DATA     BYTE      PCON
      00000080H.1 SFRSYM    DATA     BIT       P01
      000000A0H   SFRSYM    DATA     BIT       P20
      00000090H.1 SFRSYM    DATA     BIT       P11
      00000080H.2 SFRSYM    DATA     BIT       P02
      000000F5H   SFRSYM    DATA     BYTE      IAP_TPS
      000000B0H   SFRSYM    DATA     BIT       P30
      000000A0H.1 SFRSYM    DATA     BIT       P21
      00000090H.2 SFRSYM    DATA     BIT       P12
      00000080H.3 SFRSYM    DATA     BIT       P03
      000000C0H   SFRSYM    DATA     BIT       P40
      000000B0H.1 SFRSYM    DATA     BIT       P31
      000000A0H.2 SFRSYM    DATA     BIT       P22
      00000098H   SFRSYM    DATA     BYTE      SCON
      00000090H.3 SFRSYM    DATA     BIT       P13
      00000080H.4 SFRSYM    DATA     BIT       P04
      000000C8H   SFRSYM    DATA     BIT       P50
      000000C0H.1 SFRSYM    DATA     BIT       P41
      000000B0H.2 SFRSYM    DATA     BIT       P32
      000000A0H.3 SFRSYM    DATA     BIT       P23
      00000090H.4 SFRSYM    DATA     BIT       P14
      00000089H   SFRSYM    DATA     BYTE      TMOD
      00000088H   SFRSYM    DATA     BYTE      TCON
      00000080H.5 SFRSYM    DATA     BIT       P05
      000000E8H   SFRSYM    DATA     BIT       P60
      000000C8H.1 SFRSYM    DATA     BIT       P51
      000000C0H.2 SFRSYM    DATA     BIT       P42
      000000B0H.3 SFRSYM    DATA     BIT       P33
      000000A0H.4 SFRSYM    DATA     BIT       P24
      00000090H.5 SFRSYM    DATA     BIT       P15
      00000080H.6 SFRSYM    DATA     BIT       P06
      000000F8H   SFRSYM    DATA     BIT       P70
      000000E8H.1 SFRSYM    DATA     BIT       P61
      000000C8H.2 SFRSYM    DATA     BIT       P52
      000000C0H.3 SFRSYM    DATA     BIT       P43
      000000B8H.6 SFRSYM    DATA     BIT       PLVD
      000000B0H.4 SFRSYM    DATA     BIT       P34
      000000A0H.5 SFRSYM    DATA     BIT       P25
      00000090H.6 SFRSYM    DATA     BIT       P16
      00000080H.7 SFRSYM    DATA     BIT       P07
      000000F8H.1 SFRSYM    DATA     BIT       P71
      000000E8H.2 SFRSYM    DATA     BIT       P62
      000000C8H.3 SFRSYM    DATA     BIT       P53
      000000C0H.4 SFRSYM    DATA     BIT       P44
      000000B0H.5 SFRSYM    DATA     BIT       P35
      000000A0H.6 SFRSYM    DATA     BIT       P26
      00000090H.7 SFRSYM    DATA     BIT       P17
      000000F8H.2 SFRSYM    DATA     BIT       P72
      000000E8H.3 SFRSYM    DATA     BIT       P63
      000000C8H.4 SFRSYM    DATA     BIT       P54
      000000C0H.5 SFRSYM    DATA     BIT       P45
      000000B0H.6 SFRSYM    DATA     BIT       P36
      000000A0H.7 SFRSYM    DATA     BIT       P27
      000000F8H.3 SFRSYM    DATA     BIT       P73
      000000E8H.4 SFRSYM    DATA     BIT       P64
      000000C8H.5 SFRSYM    DATA     BIT       P55
      000000C0H.6 SFRSYM    DATA     BIT       P46
      000000B0H.7 SFRSYM    DATA     BIT       P37
      000000F8H.4 SFRSYM    DATA     BIT       P74
      000000E8H.5 SFRSYM    DATA     BIT       P65
      000000C8H.6 SFRSYM    DATA     BIT       P56
LX51 LINKER/LOCATER V4.41                                                             05/12/2022  17:30:48  PAGE 50


      000000C0H.7 SFRSYM    DATA     BIT       P47
      000000F8H.5 SFRSYM    DATA     BIT       P75
      000000E8H.6 SFRSYM    DATA     BIT       P66
      000000C8H.7 SFRSYM    DATA     BIT       P57
      000000F8H.6 SFRSYM    DATA     BIT       P76
      000000E8H.7 SFRSYM    DATA     BIT       P67
      000000F8H.7 SFRSYM    DATA     BIT       P77
      00000088H.1 SFRSYM    DATA     BIT       IE0
      00000088H.3 SFRSYM    DATA     BIT       IE1
      000000AFH   SFRSYM    DATA     BYTE      IE2
      000000F0H   SFRSYM    DATA     BYTE      B
      0000008EH   SFRSYM    DATA     BYTE      AUXR
      000000FCH   SFRSYM    DATA     BYTE      USBADR
      000000C7H   SFRSYM    DATA     BYTE      IAP_CONTR
      000000ECH   SFRSYM    DATA     BYTE      USBDAT
      000000DCH   SFRSYM    DATA     BYTE      USBCLK
      000000E0H   SFRSYM    DATA     BYTE      ACC
      000000A8H.1 SFRSYM    DATA     BIT       ET0
      000000A8H.3 SFRSYM    DATA     BIT       ET1
      00000088H.5 SFRSYM    DATA     BIT       TF0
      000000FFH   SFRSYM    DATA     BYTE      RSTCFG
      000000B5H   SFRSYM    DATA     BYTE      IP2
      00000088H.7 SFRSYM    DATA     BIT       TF1
      000000F4H   SFRSYM    DATA     BYTE      USBCON
      000000DFH   SFRSYM    DATA     BYTE      IP3
      00000098H.2 SFRSYM    DATA     BIT       RB8
      0000008CH   SFRSYM    DATA     BYTE      TH0
      000000A8H   SFRSYM    DATA     BIT       EX0
      0000008DH   SFRSYM    DATA     BYTE      TH1
      00000088H   SFRSYM    DATA     BIT       IT0
      000000D6H   SFRSYM    DATA     BYTE      T2H
      000000A8H.2 SFRSYM    DATA     BIT       EX1
      00000098H.3 SFRSYM    DATA     BIT       TB8
      00000088H.2 SFRSYM    DATA     BIT       IT1
      000000D4H   SFRSYM    DATA     BYTE      T3H
      000000D0H   SFRSYM    DATA     BIT       P
      000000D2H   SFRSYM    DATA     BYTE      T4H
      00000098H.7 SFRSYM    DATA     BIT       SM0
      0000008AH   SFRSYM    DATA     BYTE      TL0
      00000098H.6 SFRSYM    DATA     BIT       SM1
      0000008BH   SFRSYM    DATA     BYTE      TL1
      000000D7H   SFRSYM    DATA     BYTE      T2L
      00000098H.5 SFRSYM    DATA     BIT       SM2
      000000D5H   SFRSYM    DATA     BYTE      T3L
      000000D3H   SFRSYM    DATA     BYTE      T4L
      000000B8H.1 SFRSYM    DATA     BIT       PT0
      000000D0H.3 SFRSYM    DATA     BIT       RS0
      000000B8H.3 SFRSYM    DATA     BIT       PT1
      000000D0H.4 SFRSYM    DATA     BIT       RS1
      000000C2H   SFRSYM    DATA     BYTE      IAP_DATA
      00000088H.4 SFRSYM    DATA     BIT       TR0
      00000088H.6 SFRSYM    DATA     BIT       TR1
      000000C1H   SFRSYM    DATA     BYTE      WDT_CONTR
      000000B8H   SFRSYM    DATA     BIT       PX0
      000000B8H.2 SFRSYM    DATA     BIT       PX1
      0000009FH   SFRSYM    DATA     BYTE      IRTRIM
      00000083H   SFRSYM    DATA     BYTE      DPH
      000000D1H   SFRSYM    DATA     BYTE      T4T3M
      000000BEH   SFRSYM    DATA     BYTE      ADC_RESL
      00000082H   SFRSYM    DATA     BYTE      DPL
      000000CDH   SFRSYM    DATA     BYTE      SPSTAT
      000000B7H   SFRSYM    DATA     BYTE      IPH
      0000009BH   SFRSYM    DATA     BYTE      S2BUF
      000000ADH   SFRSYM    DATA     BYTE      S3BUF
      00000098H.4 SFRSYM    DATA     BIT       REN
LX51 LINKER/LOCATER V4.41                                                             05/12/2022  17:30:48  PAGE 51


      00000085H   SFRSYM    DATA     BYTE      S4BUF
      0000009AH   SFRSYM    DATA     BYTE      S2CON
      000000E3H   SFRSYM    DATA     BYTE      DPS
      000000ACH   SFRSYM    DATA     BYTE      S3CON
      00000084H   SFRSYM    DATA     BYTE      S4CON
      000000EFH   SFRSYM    DATA     BYTE      AUXINTIF
      000000B9H   SFRSYM    DATA     BYTE      SADEN
      000000A9H   SFRSYM    DATA     BYTE      SADDR
      000000C6H   SFRSYM    DATA     BYTE      IAP_TRIG
      000000D0H.5 SFRSYM    DATA     BIT       F0
      0000009DH   SFRSYM    DATA     BYTE      IRCBAND
      000000D0H   SFRSYM    DATA     BYTE      PSW
      000000CFH   SFRSYM    DATA     BYTE      SPDAT
      00000094H   SFRSYM    DATA     BYTE      P0M0
      00000007H   SYMBOL    DATA     BYTE      pwmch
      00000004H   SYMBOL    DATA     WORD      match_temp

      ---         MODULE    ---      ---       ZF_EXTI
      00000093H   SFRSYM    DATA     BYTE      P0M1
      00000092H   SFRSYM    DATA     BYTE      P1M0
      00000096H   SFRSYM    DATA     BYTE      P2M0
      00000091H   SFRSYM    DATA     BYTE      P1M1
      00000080H   SFRSYM    DATA     BYTE      P0
      000000B2H   SFRSYM    DATA     BYTE      P3M0
      00000095H   SFRSYM    DATA     BYTE      P2M1
      00000090H   SFRSYM    DATA     BYTE      P1
      000000B4H   SFRSYM    DATA     BYTE      P4M0
      000000B1H   SFRSYM    DATA     BYTE      P3M1
      000000A0H   SFRSYM    DATA     BYTE      P2
      000000CAH   SFRSYM    DATA     BYTE      P5M0
      000000B3H   SFRSYM    DATA     BYTE      P4M1
      000000B0H   SFRSYM    DATA     BYTE      P3
      000000ABH   SFRSYM    DATA     BYTE      WKTCH
      000000D0H.6 SFRSYM    DATA     BIT       AC
      000000CCH   SFRSYM    DATA     BYTE      P6M0
      000000C9H   SFRSYM    DATA     BYTE      P5M1
      000000C0H   SFRSYM    DATA     BYTE      P4
      000000E2H   SFRSYM    DATA     BYTE      P7M0
      000000CBH   SFRSYM    DATA     BYTE      P6M1
      000000C8H   SFRSYM    DATA     BYTE      P5
      000000E8H   SFRSYM    DATA     BYTE      P6
      000000E1H   SFRSYM    DATA     BYTE      P7M1
      000000A8H.7 SFRSYM    DATA     BIT       EA
      000000F8H   SFRSYM    DATA     BYTE      P7
      000000AAH   SFRSYM    DATA     BYTE      WKTCL
      000000CEH   SFRSYM    DATA     BYTE      SPCTL
      000000A2H   SFRSYM    DATA     BYTE      P_SW1
      000000BAH   SFRSYM    DATA     BYTE      P_SW2
      000000E5H   SFRSYM    DATA     BYTE      DPH1
      000000A8H.5 SFRSYM    DATA     BIT       EADC
      000000A8H   SFRSYM    DATA     BYTE      IE
      000000C5H   SFRSYM    DATA     BYTE      IAP_CMD
      000000E4H   SFRSYM    DATA     BYTE      DPL1
      000000BDH   SFRSYM    DATA     BYTE      ADC_RES
      000000B6H   SFRSYM    DATA     BYTE      IP2H
      000000EEH   SFRSYM    DATA     BYTE      IP3H
      000000AEH   SFRSYM    DATA     BYTE      TA
      0000008FH   SFRSYM    DATA     BYTE      INTCLKO
      000000A8H.4 SFRSYM    DATA     BIT       ES
      000000B8H.5 SFRSYM    DATA     BIT       PADC
      000000B8H   SFRSYM    DATA     BYTE      IP
      000000DEH   SFRSYM    DATA     BYTE      ADCCFG
      00000098H   SFRSYM    DATA     BIT       RI
      000000D0H.7 SFRSYM    DATA     BIT       CY
      00000098H.1 SFRSYM    DATA     BIT       TI
LX51 LINKER/LOCATER V4.41                                                             05/12/2022  17:30:48  PAGE 52


      000000C3H   SFRSYM    DATA     BYTE      IAP_ADDRH
      000000B8H.4 SFRSYM    DATA     BIT       PS
      00000081H   SFRSYM    DATA     BYTE      SP
      000000C4H   SFRSYM    DATA     BYTE      IAP_ADDRL
      000000D0H.2 SFRSYM    DATA     BIT       OV
      000000B8H.7 SFRSYM    DATA     BIT       PPCA
      0000009EH   SFRSYM    DATA     BYTE      LIRTRIM
      000000E6H   SFRSYM    DATA     BYTE      CMPCR1
      000000E7H   SFRSYM    DATA     BYTE      CMPCR2
      000000A8H.6 SFRSYM    DATA     BIT       ELVD
      00000080H   SFRSYM    DATA     BIT       P00
      000000BCH   SFRSYM    DATA     BYTE      ADC_CONTR
      00000099H   SFRSYM    DATA     BYTE      SBUF
      00000090H   SFRSYM    DATA     BIT       P10
      00000087H   SFRSYM    DATA     BYTE      PCON
      00000080H.1 SFRSYM    DATA     BIT       P01
      000000A0H   SFRSYM    DATA     BIT       P20
      00000090H.1 SFRSYM    DATA     BIT       P11
      00000080H.2 SFRSYM    DATA     BIT       P02
      000000F5H   SFRSYM    DATA     BYTE      IAP_TPS
      000000B0H   SFRSYM    DATA     BIT       P30
      000000A0H.1 SFRSYM    DATA     BIT       P21
      00000090H.2 SFRSYM    DATA     BIT       P12
      00000080H.3 SFRSYM    DATA     BIT       P03
      000000C0H   SFRSYM    DATA     BIT       P40
      000000B0H.1 SFRSYM    DATA     BIT       P31
      000000A0H.2 SFRSYM    DATA     BIT       P22
      00000098H   SFRSYM    DATA     BYTE      SCON
      00000090H.3 SFRSYM    DATA     BIT       P13
      00000080H.4 SFRSYM    DATA     BIT       P04
      000000C8H   SFRSYM    DATA     BIT       P50
      000000C0H.1 SFRSYM    DATA     BIT       P41
      000000B0H.2 SFRSYM    DATA     BIT       P32
      000000A0H.3 SFRSYM    DATA     BIT       P23
      00000090H.4 SFRSYM    DATA     BIT       P14
      00000089H   SFRSYM    DATA     BYTE      TMOD
      00000088H   SFRSYM    DATA     BYTE      TCON
      00000080H.5 SFRSYM    DATA     BIT       P05
      000000E8H   SFRSYM    DATA     BIT       P60
      000000C8H.1 SFRSYM    DATA     BIT       P51
      000000C0H.2 SFRSYM    DATA     BIT       P42
      000000B0H.3 SFRSYM    DATA     BIT       P33
      000000A0H.4 SFRSYM    DATA     BIT       P24
      00000090H.5 SFRSYM    DATA     BIT       P15
      00000080H.6 SFRSYM    DATA     BIT       P06
      000000F8H   SFRSYM    DATA     BIT       P70
      000000E8H.1 SFRSYM    DATA     BIT       P61
      000000C8H.2 SFRSYM    DATA     BIT       P52
      000000C0H.3 SFRSYM    DATA     BIT       P43
      000000B8H.6 SFRSYM    DATA     BIT       PLVD
      000000B0H.4 SFRSYM    DATA     BIT       P34
      000000A0H.5 SFRSYM    DATA     BIT       P25
      00000090H.6 SFRSYM    DATA     BIT       P16
      00000080H.7 SFRSYM    DATA     BIT       P07
      000000F8H.1 SFRSYM    DATA     BIT       P71
      000000E8H.2 SFRSYM    DATA     BIT       P62
      000000C8H.3 SFRSYM    DATA     BIT       P53
      000000C0H.4 SFRSYM    DATA     BIT       P44
      000000B0H.5 SFRSYM    DATA     BIT       P35
      000000A0H.6 SFRSYM    DATA     BIT       P26
      00000090H.7 SFRSYM    DATA     BIT       P17
      000000F8H.2 SFRSYM    DATA     BIT       P72
      000000E8H.3 SFRSYM    DATA     BIT       P63
      000000C8H.4 SFRSYM    DATA     BIT       P54
      000000C0H.5 SFRSYM    DATA     BIT       P45
LX51 LINKER/LOCATER V4.41                                                             05/12/2022  17:30:48  PAGE 53


      000000B0H.6 SFRSYM    DATA     BIT       P36
      000000A0H.7 SFRSYM    DATA     BIT       P27
      000000F8H.3 SFRSYM    DATA     BIT       P73
      000000E8H.4 SFRSYM    DATA     BIT       P64
      000000C8H.5 SFRSYM    DATA     BIT       P55
      000000C0H.6 SFRSYM    DATA     BIT       P46
      000000B0H.7 SFRSYM    DATA     BIT       P37
      000000F8H.4 SFRSYM    DATA     BIT       P74
      000000E8H.5 SFRSYM    DATA     BIT       P65
      000000C8H.6 SFRSYM    DATA     BIT       P56
      000000C0H.7 SFRSYM    DATA     BIT       P47
      000000F8H.5 SFRSYM    DATA     BIT       P75
      000000E8H.6 SFRSYM    DATA     BIT       P66
      000000C8H.7 SFRSYM    DATA     BIT       P57
      000000F8H.6 SFRSYM    DATA     BIT       P76
      000000E8H.7 SFRSYM    DATA     BIT       P67
      000000F8H.7 SFRSYM    DATA     BIT       P77
      00000088H.1 SFRSYM    DATA     BIT       IE0
      00000088H.3 SFRSYM    DATA     BIT       IE1
      000000AFH   SFRSYM    DATA     BYTE      IE2
      000000F0H   SFRSYM    DATA     BYTE      B
      0000008EH   SFRSYM    DATA     BYTE      AUXR
      000000FCH   SFRSYM    DATA     BYTE      USBADR
      000000C7H   SFRSYM    DATA     BYTE      IAP_CONTR
      000000ECH   SFRSYM    DATA     BYTE      USBDAT
      000000DCH   SFRSYM    DATA     BYTE      USBCLK
      000000E0H   SFRSYM    DATA     BYTE      ACC
      000000A8H.1 SFRSYM    DATA     BIT       ET0
      000000A8H.3 SFRSYM    DATA     BIT       ET1
      00000088H.5 SFRSYM    DATA     BIT       TF0
      000000FFH   SFRSYM    DATA     BYTE      RSTCFG
      000000B5H   SFRSYM    DATA     BYTE      IP2
      00000088H.7 SFRSYM    DATA     BIT       TF1
      000000F4H   SFRSYM    DATA     BYTE      USBCON
      000000DFH   SFRSYM    DATA     BYTE      IP3
      00000098H.2 SFRSYM    DATA     BIT       RB8
      0000008CH   SFRSYM    DATA     BYTE      TH0
      000000A8H   SFRSYM    DATA     BIT       EX0
      0000008DH   SFRSYM    DATA     BYTE      TH1
      00000088H   SFRSYM    DATA     BIT       IT0
      000000D6H   SFRSYM    DATA     BYTE      T2H
      000000A8H.2 SFRSYM    DATA     BIT       EX1
      00000098H.3 SFRSYM    DATA     BIT       TB8
      00000088H.2 SFRSYM    DATA     BIT       IT1
      000000D4H   SFRSYM    DATA     BYTE      T3H
      000000D0H   SFRSYM    DATA     BIT       P
      000000D2H   SFRSYM    DATA     BYTE      T4H
      00000098H.7 SFRSYM    DATA     BIT       SM0
      0000008AH   SFRSYM    DATA     BYTE      TL0
      00000098H.6 SFRSYM    DATA     BIT       SM1
      0000008BH   SFRSYM    DATA     BYTE      TL1
      000000D7H   SFRSYM    DATA     BYTE      T2L
      00000098H.5 SFRSYM    DATA     BIT       SM2
      000000D5H   SFRSYM    DATA     BYTE      T3L
      000000D3H   SFRSYM    DATA     BYTE      T4L
      000000B8H.1 SFRSYM    DATA     BIT       PT0
      000000D0H.3 SFRSYM    DATA     BIT       RS0
      000000B8H.3 SFRSYM    DATA     BIT       PT1
      000000D0H.4 SFRSYM    DATA     BIT       RS1
      000000C2H   SFRSYM    DATA     BYTE      IAP_DATA
      00000088H.4 SFRSYM    DATA     BIT       TR0
      00000088H.6 SFRSYM    DATA     BIT       TR1
      000000C1H   SFRSYM    DATA     BYTE      WDT_CONTR
      000000B8H   SFRSYM    DATA     BIT       PX0
      000000B8H.2 SFRSYM    DATA     BIT       PX1
LX51 LINKER/LOCATER V4.41                                                             05/12/2022  17:30:48  PAGE 54


      0000009FH   SFRSYM    DATA     BYTE      IRTRIM
      00000083H   SFRSYM    DATA     BYTE      DPH
      000000D1H   SFRSYM    DATA     BYTE      T4T3M
      000000BEH   SFRSYM    DATA     BYTE      ADC_RESL
      00000082H   SFRSYM    DATA     BYTE      DPL
      000000CDH   SFRSYM    DATA     BYTE      SPSTAT
      000000B7H   SFRSYM    DATA     BYTE      IPH
      0000009BH   SFRSYM    DATA     BYTE      S2BUF
      000000ADH   SFRSYM    DATA     BYTE      S3BUF
      00000098H.4 SFRSYM    DATA     BIT       REN
      00000085H   SFRSYM    DATA     BYTE      S4BUF
      0000009AH   SFRSYM    DATA     BYTE      S2CON
      000000E3H   SFRSYM    DATA     BYTE      DPS
      000000ACH   SFRSYM    DATA     BYTE      S3CON
      00000084H   SFRSYM    DATA     BYTE      S4CON
      000000EFH   SFRSYM    DATA     BYTE      AUXINTIF
      000000B9H   SFRSYM    DATA     BYTE      SADEN
      000000A9H   SFRSYM    DATA     BYTE      SADDR
      000000C6H   SFRSYM    DATA     BYTE      IAP_TRIG
      000000D0H.5 SFRSYM    DATA     BIT       F0
      0000009DH   SFRSYM    DATA     BYTE      IRCBAND
      000000D0H   SFRSYM    DATA     BYTE      PSW
      000000CFH   SFRSYM    DATA     BYTE      SPDAT
      00000094H   SFRSYM    DATA     BYTE      P0M0
      00000007H   SYMBOL    DATA     BYTE      int_n
      00000005H   SYMBOL    DATA     BYTE      mode

      ---         MODULE    ---      ---       ZF_GPIO
      00000093H   SFRSYM    DATA     BYTE      P0M1
      00000092H   SFRSYM    DATA     BYTE      P1M0
      00000096H   SFRSYM    DATA     BYTE      P2M0
      00000091H   SFRSYM    DATA     BYTE      P1M1
      00000080H   SFRSYM    DATA     BYTE      P0
      000000B2H   SFRSYM    DATA     BYTE      P3M0
      00000095H   SFRSYM    DATA     BYTE      P2M1
      00000090H   SFRSYM    DATA     BYTE      P1
      000000B4H   SFRSYM    DATA     BYTE      P4M0
      000000B1H   SFRSYM    DATA     BYTE      P3M1
      000000A0H   SFRSYM    DATA     BYTE      P2
      000000CAH   SFRSYM    DATA     BYTE      P5M0
      000000B3H   SFRSYM    DATA     BYTE      P4M1
      000000B0H   SFRSYM    DATA     BYTE      P3
      000000ABH   SFRSYM    DATA     BYTE      WKTCH
      000000D0H.6 SFRSYM    DATA     BIT       AC
      000000CCH   SFRSYM    DATA     BYTE      P6M0
      000000C9H   SFRSYM    DATA     BYTE      P5M1
      000000C0H   SFRSYM    DATA     BYTE      P4
      000000E2H   SFRSYM    DATA     BYTE      P7M0
      000000CBH   SFRSYM    DATA     BYTE      P6M1
      000000C8H   SFRSYM    DATA     BYTE      P5
      000000E8H   SFRSYM    DATA     BYTE      P6
      000000E1H   SFRSYM    DATA     BYTE      P7M1
      000000A8H.7 SFRSYM    DATA     BIT       EA
      000000F8H   SFRSYM    DATA     BYTE      P7
      000000AAH   SFRSYM    DATA     BYTE      WKTCL
      000000CEH   SFRSYM    DATA     BYTE      SPCTL
      000000A2H   SFRSYM    DATA     BYTE      P_SW1
      000000BAH   SFRSYM    DATA     BYTE      P_SW2
      000000E5H   SFRSYM    DATA     BYTE      DPH1
      000000A8H.5 SFRSYM    DATA     BIT       EADC
      000000A8H   SFRSYM    DATA     BYTE      IE
      000000C5H   SFRSYM    DATA     BYTE      IAP_CMD
      000000E4H   SFRSYM    DATA     BYTE      DPL1
      000000BDH   SFRSYM    DATA     BYTE      ADC_RES
      000000B6H   SFRSYM    DATA     BYTE      IP2H
LX51 LINKER/LOCATER V4.41                                                             05/12/2022  17:30:48  PAGE 55


      000000EEH   SFRSYM    DATA     BYTE      IP3H
      000000AEH   SFRSYM    DATA     BYTE      TA
      0000008FH   SFRSYM    DATA     BYTE      INTCLKO
      000000A8H.4 SFRSYM    DATA     BIT       ES
      000000B8H.5 SFRSYM    DATA     BIT       PADC
      000000B8H   SFRSYM    DATA     BYTE      IP
      000000DEH   SFRSYM    DATA     BYTE      ADCCFG
      00000098H   SFRSYM    DATA     BIT       RI
      000000D0H.7 SFRSYM    DATA     BIT       CY
      00000098H.1 SFRSYM    DATA     BIT       TI
      000000C3H   SFRSYM    DATA     BYTE      IAP_ADDRH
      000000B8H.4 SFRSYM    DATA     BIT       PS
      00000081H   SFRSYM    DATA     BYTE      SP
      000000C4H   SFRSYM    DATA     BYTE      IAP_ADDRL
      000000D0H.2 SFRSYM    DATA     BIT       OV
      000000B8H.7 SFRSYM    DATA     BIT       PPCA
      0000009EH   SFRSYM    DATA     BYTE      LIRTRIM
      000000E6H   SFRSYM    DATA     BYTE      CMPCR1
      000000E7H   SFRSYM    DATA     BYTE      CMPCR2
      000000A8H.6 SFRSYM    DATA     BIT       ELVD
      00000080H   SFRSYM    DATA     BIT       P00
      000000BCH   SFRSYM    DATA     BYTE      ADC_CONTR
      00000099H   SFRSYM    DATA     BYTE      SBUF
      00000090H   SFRSYM    DATA     BIT       P10
      00000087H   SFRSYM    DATA     BYTE      PCON
      00000080H.1 SFRSYM    DATA     BIT       P01
      000000A0H   SFRSYM    DATA     BIT       P20
      00000090H.1 SFRSYM    DATA     BIT       P11
      00000080H.2 SFRSYM    DATA     BIT       P02
      000000F5H   SFRSYM    DATA     BYTE      IAP_TPS
      000000B0H   SFRSYM    DATA     BIT       P30
      000000A0H.1 SFRSYM    DATA     BIT       P21
      00000090H.2 SFRSYM    DATA     BIT       P12
      00000080H.3 SFRSYM    DATA     BIT       P03
      000000C0H   SFRSYM    DATA     BIT       P40
      000000B0H.1 SFRSYM    DATA     BIT       P31
      000000A0H.2 SFRSYM    DATA     BIT       P22
      00000098H   SFRSYM    DATA     BYTE      SCON
      00000090H.3 SFRSYM    DATA     BIT       P13
      00000080H.4 SFRSYM    DATA     BIT       P04
      000000C8H   SFRSYM    DATA     BIT       P50
      000000C0H.1 SFRSYM    DATA     BIT       P41
      000000B0H.2 SFRSYM    DATA     BIT       P32
      000000A0H.3 SFRSYM    DATA     BIT       P23
      00000090H.4 SFRSYM    DATA     BIT       P14
      00000089H   SFRSYM    DATA     BYTE      TMOD
      00000088H   SFRSYM    DATA     BYTE      TCON
      00000080H.5 SFRSYM    DATA     BIT       P05
      000000E8H   SFRSYM    DATA     BIT       P60
      000000C8H.1 SFRSYM    DATA     BIT       P51
      000000C0H.2 SFRSYM    DATA     BIT       P42
      000000B0H.3 SFRSYM    DATA     BIT       P33
      000000A0H.4 SFRSYM    DATA     BIT       P24
      00000090H.5 SFRSYM    DATA     BIT       P15
      00000080H.6 SFRSYM    DATA     BIT       P06
      000000F8H   SFRSYM    DATA     BIT       P70
      000000E8H.1 SFRSYM    DATA     BIT       P61
      000000C8H.2 SFRSYM    DATA     BIT       P52
      000000C0H.3 SFRSYM    DATA     BIT       P43
      000000B8H.6 SFRSYM    DATA     BIT       PLVD
      000000B0H.4 SFRSYM    DATA     BIT       P34
      000000A0H.5 SFRSYM    DATA     BIT       P25
      00000090H.6 SFRSYM    DATA     BIT       P16
      00000080H.7 SFRSYM    DATA     BIT       P07
      000000F8H.1 SFRSYM    DATA     BIT       P71
LX51 LINKER/LOCATER V4.41                                                             05/12/2022  17:30:48  PAGE 56


      000000E8H.2 SFRSYM    DATA     BIT       P62
      000000C8H.3 SFRSYM    DATA     BIT       P53
      000000C0H.4 SFRSYM    DATA     BIT       P44
      000000B0H.5 SFRSYM    DATA     BIT       P35
      000000A0H.6 SFRSYM    DATA     BIT       P26
      00000090H.7 SFRSYM    DATA     BIT       P17
      000000F8H.2 SFRSYM    DATA     BIT       P72
      000000E8H.3 SFRSYM    DATA     BIT       P63
      000000C8H.4 SFRSYM    DATA     BIT       P54
      000000C0H.5 SFRSYM    DATA     BIT       P45
      000000B0H.6 SFRSYM    DATA     BIT       P36
      000000A0H.7 SFRSYM    DATA     BIT       P27
      000000F8H.3 SFRSYM    DATA     BIT       P73
      000000E8H.4 SFRSYM    DATA     BIT       P64
      000000C8H.5 SFRSYM    DATA     BIT       P55
      000000C0H.6 SFRSYM    DATA     BIT       P46
      000000B0H.7 SFRSYM    DATA     BIT       P37
      000000F8H.4 SFRSYM    DATA     BIT       P74
      000000E8H.5 SFRSYM    DATA     BIT       P65
      000000C8H.6 SFRSYM    DATA     BIT       P56
      000000C0H.7 SFRSYM    DATA     BIT       P47
      000000F8H.5 SFRSYM    DATA     BIT       P75
      000000E8H.6 SFRSYM    DATA     BIT       P66
      000000C8H.7 SFRSYM    DATA     BIT       P57
      000000F8H.6 SFRSYM    DATA     BIT       P76
      000000E8H.7 SFRSYM    DATA     BIT       P67
      000000F8H.7 SFRSYM    DATA     BIT       P77
      00000088H.1 SFRSYM    DATA     BIT       IE0
      00000088H.3 SFRSYM    DATA     BIT       IE1
      000000AFH   SFRSYM    DATA     BYTE      IE2
      000000F0H   SFRSYM    DATA     BYTE      B
      0000008EH   SFRSYM    DATA     BYTE      AUXR
      000000FCH   SFRSYM    DATA     BYTE      USBADR
      000000C7H   SFRSYM    DATA     BYTE      IAP_CONTR
      000000ECH   SFRSYM    DATA     BYTE      USBDAT
      000000DCH   SFRSYM    DATA     BYTE      USBCLK
      000000E0H   SFRSYM    DATA     BYTE      ACC
      000000A8H.1 SFRSYM    DATA     BIT       ET0
      000000A8H.3 SFRSYM    DATA     BIT       ET1
      00000088H.5 SFRSYM    DATA     BIT       TF0
      000000FFH   SFRSYM    DATA     BYTE      RSTCFG
      000000B5H   SFRSYM    DATA     BYTE      IP2
      00000088H.7 SFRSYM    DATA     BIT       TF1
      000000F4H   SFRSYM    DATA     BYTE      USBCON
      000000DFH   SFRSYM    DATA     BYTE      IP3
      00000098H.2 SFRSYM    DATA     BIT       RB8
      0000008CH   SFRSYM    DATA     BYTE      TH0
      000000A8H   SFRSYM    DATA     BIT       EX0
      0000008DH   SFRSYM    DATA     BYTE      TH1
      00000088H   SFRSYM    DATA     BIT       IT0
      000000D6H   SFRSYM    DATA     BYTE      T2H
      000000A8H.2 SFRSYM    DATA     BIT       EX1
      00000098H.3 SFRSYM    DATA     BIT       TB8
      00000088H.2 SFRSYM    DATA     BIT       IT1
      000000D4H   SFRSYM    DATA     BYTE      T3H
      000000D0H   SFRSYM    DATA     BIT       P
      000000D2H   SFRSYM    DATA     BYTE      T4H
      00000098H.7 SFRSYM    DATA     BIT       SM0
      0000008AH   SFRSYM    DATA     BYTE      TL0
      00000098H.6 SFRSYM    DATA     BIT       SM1
      0000008BH   SFRSYM    DATA     BYTE      TL1
      000000D7H   SFRSYM    DATA     BYTE      T2L
      00000098H.5 SFRSYM    DATA     BIT       SM2
      000000D5H   SFRSYM    DATA     BYTE      T3L
      000000D3H   SFRSYM    DATA     BYTE      T4L
LX51 LINKER/LOCATER V4.41                                                             05/12/2022  17:30:48  PAGE 57


      000000B8H.1 SFRSYM    DATA     BIT       PT0
      000000D0H.3 SFRSYM    DATA     BIT       RS0
      000000B8H.3 SFRSYM    DATA     BIT       PT1
      000000D0H.4 SFRSYM    DATA     BIT       RS1
      000000C2H   SFRSYM    DATA     BYTE      IAP_DATA
      00000088H.4 SFRSYM    DATA     BIT       TR0
      00000088H.6 SFRSYM    DATA     BIT       TR1
      000000C1H   SFRSYM    DATA     BYTE      WDT_CONTR
      000000B8H   SFRSYM    DATA     BIT       PX0
      000000B8H.2 SFRSYM    DATA     BIT       PX1
      0000009FH   SFRSYM    DATA     BYTE      IRTRIM
      00000083H   SFRSYM    DATA     BYTE      DPH
      000000D1H   SFRSYM    DATA     BYTE      T4T3M
      000000BEH   SFRSYM    DATA     BYTE      ADC_RESL
      00000082H   SFRSYM    DATA     BYTE      DPL
      000000CDH   SFRSYM    DATA     BYTE      SPSTAT
      000000B7H   SFRSYM    DATA     BYTE      IPH
      0000009BH   SFRSYM    DATA     BYTE      S2BUF
      000000ADH   SFRSYM    DATA     BYTE      S3BUF
      00000098H.4 SFRSYM    DATA     BIT       REN
      00000085H   SFRSYM    DATA     BYTE      S4BUF
      0000009AH   SFRSYM    DATA     BYTE      S2CON
      000000E3H   SFRSYM    DATA     BYTE      DPS
      000000ACH   SFRSYM    DATA     BYTE      S3CON
      00000084H   SFRSYM    DATA     BYTE      S4CON
      000000EFH   SFRSYM    DATA     BYTE      AUXINTIF
      000000B9H   SFRSYM    DATA     BYTE      SADEN
      000000A9H   SFRSYM    DATA     BYTE      SADDR
      000000C6H   SFRSYM    DATA     BYTE      IAP_TRIG
      000000D0H.5 SFRSYM    DATA     BIT       F0
      0000009DH   SFRSYM    DATA     BYTE      IRCBAND
      000000D0H   SFRSYM    DATA     BYTE      PSW
      000000CFH   SFRSYM    DATA     BYTE      SPDAT
      00000094H   SFRSYM    DATA     BYTE      P0M0
      00000007H   SYMBOL    DATA     BYTE      pin
      00000005H   SYMBOL    DATA     BYTE      pull
      00000007H   SYMBOL    DATA     BYTE      pin
      00000005H   SYMBOL    DATA     BYTE      mode

      ---         MODULE    ---      ---       ZF_EEPROM
      00000093H   SFRSYM    DATA     BYTE      P0M1
      00000092H   SFRSYM    DATA     BYTE      P1M0
      00000096H   SFRSYM    DATA     BYTE      P2M0
      00000091H   SFRSYM    DATA     BYTE      P1M1
      00000080H   SFRSYM    DATA     BYTE      P0
      000000B2H   SFRSYM    DATA     BYTE      P3M0
      00000095H   SFRSYM    DATA     BYTE      P2M1
      00000090H   SFRSYM    DATA     BYTE      P1
      000000B4H   SFRSYM    DATA     BYTE      P4M0
      000000B1H   SFRSYM    DATA     BYTE      P3M1
      000000A0H   SFRSYM    DATA     BYTE      P2
      000000CAH   SFRSYM    DATA     BYTE      P5M0
      000000B3H   SFRSYM    DATA     BYTE      P4M1
      000000B0H   SFRSYM    DATA     BYTE      P3
      000000ABH   SFRSYM    DATA     BYTE      WKTCH
      000000D0H.6 SFRSYM    DATA     BIT       AC
      000000CCH   SFRSYM    DATA     BYTE      P6M0
      000000C9H   SFRSYM    DATA     BYTE      P5M1
      000000C0H   SFRSYM    DATA     BYTE      P4
      000000E2H   SFRSYM    DATA     BYTE      P7M0
      000000CBH   SFRSYM    DATA     BYTE      P6M1
      000000C8H   SFRSYM    DATA     BYTE      P5
      000000E8H   SFRSYM    DATA     BYTE      P6
      000000E1H   SFRSYM    DATA     BYTE      P7M1
      000000A8H.7 SFRSYM    DATA     BIT       EA
LX51 LINKER/LOCATER V4.41                                                             05/12/2022  17:30:48  PAGE 58


      000000F8H   SFRSYM    DATA     BYTE      P7
      000000AAH   SFRSYM    DATA     BYTE      WKTCL
      000000CEH   SFRSYM    DATA     BYTE      SPCTL
      000000A2H   SFRSYM    DATA     BYTE      P_SW1
      000000BAH   SFRSYM    DATA     BYTE      P_SW2
      000000E5H   SFRSYM    DATA     BYTE      DPH1
      000000A8H.5 SFRSYM    DATA     BIT       EADC
      000000A8H   SFRSYM    DATA     BYTE      IE
      000000C5H   SFRSYM    DATA     BYTE      IAP_CMD
      000000E4H   SFRSYM    DATA     BYTE      DPL1
      000000BDH   SFRSYM    DATA     BYTE      ADC_RES
      000000B6H   SFRSYM    DATA     BYTE      IP2H
      000000EEH   SFRSYM    DATA     BYTE      IP3H
      000000AEH   SFRSYM    DATA     BYTE      TA
      0000008FH   SFRSYM    DATA     BYTE      INTCLKO
      000000A8H.4 SFRSYM    DATA     BIT       ES
      000000B8H.5 SFRSYM    DATA     BIT       PADC
      000000B8H   SFRSYM    DATA     BYTE      IP
      000000DEH   SFRSYM    DATA     BYTE      ADCCFG
      00000098H   SFRSYM    DATA     BIT       RI
      000000D0H.7 SFRSYM    DATA     BIT       CY
      00000098H.1 SFRSYM    DATA     BIT       TI
      000000C3H   SFRSYM    DATA     BYTE      IAP_ADDRH
      000000B8H.4 SFRSYM    DATA     BIT       PS
      00000081H   SFRSYM    DATA     BYTE      SP
      000000C4H   SFRSYM    DATA     BYTE      IAP_ADDRL
      000000D0H.2 SFRSYM    DATA     BIT       OV
      000000B8H.7 SFRSYM    DATA     BIT       PPCA
      0000009EH   SFRSYM    DATA     BYTE      LIRTRIM
      000000E6H   SFRSYM    DATA     BYTE      CMPCR1
      000000E7H   SFRSYM    DATA     BYTE      CMPCR2
      000000A8H.6 SFRSYM    DATA     BIT       ELVD
      00000080H   SFRSYM    DATA     BIT       P00
      000000BCH   SFRSYM    DATA     BYTE      ADC_CONTR
      00000099H   SFRSYM    DATA     BYTE      SBUF
      00000090H   SFRSYM    DATA     BIT       P10
      00000087H   SFRSYM    DATA     BYTE      PCON
      00000080H.1 SFRSYM    DATA     BIT       P01
      000000A0H   SFRSYM    DATA     BIT       P20
      00000090H.1 SFRSYM    DATA     BIT       P11
      00000080H.2 SFRSYM    DATA     BIT       P02
      000000F5H   SFRSYM    DATA     BYTE      IAP_TPS
      000000B0H   SFRSYM    DATA     BIT       P30
      000000A0H.1 SFRSYM    DATA     BIT       P21
      00000090H.2 SFRSYM    DATA     BIT       P12
      00000080H.3 SFRSYM    DATA     BIT       P03
      000000C0H   SFRSYM    DATA     BIT       P40
      000000B0H.1 SFRSYM    DATA     BIT       P31
      000000A0H.2 SFRSYM    DATA     BIT       P22
      00000098H   SFRSYM    DATA     BYTE      SCON
      00000090H.3 SFRSYM    DATA     BIT       P13
      00000080H.4 SFRSYM    DATA     BIT       P04
      000000C8H   SFRSYM    DATA     BIT       P50
      000000C0H.1 SFRSYM    DATA     BIT       P41
      000000B0H.2 SFRSYM    DATA     BIT       P32
      000000A0H.3 SFRSYM    DATA     BIT       P23
      00000090H.4 SFRSYM    DATA     BIT       P14
      00000089H   SFRSYM    DATA     BYTE      TMOD
      00000088H   SFRSYM    DATA     BYTE      TCON
      00000080H.5 SFRSYM    DATA     BIT       P05
      000000E8H   SFRSYM    DATA     BIT       P60
      000000C8H.1 SFRSYM    DATA     BIT       P51
      000000C0H.2 SFRSYM    DATA     BIT       P42
      000000B0H.3 SFRSYM    DATA     BIT       P33
      000000A0H.4 SFRSYM    DATA     BIT       P24
LX51 LINKER/LOCATER V4.41                                                             05/12/2022  17:30:48  PAGE 59


      00000090H.5 SFRSYM    DATA     BIT       P15
      00000080H.6 SFRSYM    DATA     BIT       P06
      000000F8H   SFRSYM    DATA     BIT       P70
      000000E8H.1 SFRSYM    DATA     BIT       P61
      000000C8H.2 SFRSYM    DATA     BIT       P52
      000000C0H.3 SFRSYM    DATA     BIT       P43
      000000B8H.6 SFRSYM    DATA     BIT       PLVD
      000000B0H.4 SFRSYM    DATA     BIT       P34
      000000A0H.5 SFRSYM    DATA     BIT       P25
      00000090H.6 SFRSYM    DATA     BIT       P16
      00000080H.7 SFRSYM    DATA     BIT       P07
      000000F8H.1 SFRSYM    DATA     BIT       P71
      000000E8H.2 SFRSYM    DATA     BIT       P62
      000000C8H.3 SFRSYM    DATA     BIT       P53
      000000C0H.4 SFRSYM    DATA     BIT       P44
      000000B0H.5 SFRSYM    DATA     BIT       P35
      000000A0H.6 SFRSYM    DATA     BIT       P26
      00000090H.7 SFRSYM    DATA     BIT       P17
      000000F8H.2 SFRSYM    DATA     BIT       P72
      000000E8H.3 SFRSYM    DATA     BIT       P63
      000000C8H.4 SFRSYM    DATA     BIT       P54
      000000C0H.5 SFRSYM    DATA     BIT       P45
      000000B0H.6 SFRSYM    DATA     BIT       P36
      000000A0H.7 SFRSYM    DATA     BIT       P27
      000000F8H.3 SFRSYM    DATA     BIT       P73
      000000E8H.4 SFRSYM    DATA     BIT       P64
      000000C8H.5 SFRSYM    DATA     BIT       P55
      000000C0H.6 SFRSYM    DATA     BIT       P46
      000000B0H.7 SFRSYM    DATA     BIT       P37
      000000F8H.4 SFRSYM    DATA     BIT       P74
      000000E8H.5 SFRSYM    DATA     BIT       P65
      000000C8H.6 SFRSYM    DATA     BIT       P56
      000000C0H.7 SFRSYM    DATA     BIT       P47
      000000F8H.5 SFRSYM    DATA     BIT       P75
      000000E8H.6 SFRSYM    DATA     BIT       P66
      000000C8H.7 SFRSYM    DATA     BIT       P57
      000000F8H.6 SFRSYM    DATA     BIT       P76
      000000E8H.7 SFRSYM    DATA     BIT       P67
      000000F8H.7 SFRSYM    DATA     BIT       P77
      00000088H.1 SFRSYM    DATA     BIT       IE0
      00000088H.3 SFRSYM    DATA     BIT       IE1
      000000AFH   SFRSYM    DATA     BYTE      IE2
      000000F0H   SFRSYM    DATA     BYTE      B
      0000008EH   SFRSYM    DATA     BYTE      AUXR
      000000FCH   SFRSYM    DATA     BYTE      USBADR
      000000C7H   SFRSYM    DATA     BYTE      IAP_CONTR
      000000ECH   SFRSYM    DATA     BYTE      USBDAT
      000000DCH   SFRSYM    DATA     BYTE      USBCLK
      000000E0H   SFRSYM    DATA     BYTE      ACC
      000000A8H.1 SFRSYM    DATA     BIT       ET0
      000000A8H.3 SFRSYM    DATA     BIT       ET1
      00000088H.5 SFRSYM    DATA     BIT       TF0
      000000FFH   SFRSYM    DATA     BYTE      RSTCFG
      000000B5H   SFRSYM    DATA     BYTE      IP2
      00000088H.7 SFRSYM    DATA     BIT       TF1
      000000F4H   SFRSYM    DATA     BYTE      USBCON
      000000DFH   SFRSYM    DATA     BYTE      IP3
      00000098H.2 SFRSYM    DATA     BIT       RB8
      0000008CH   SFRSYM    DATA     BYTE      TH0
      000000A8H   SFRSYM    DATA     BIT       EX0
      0000008DH   SFRSYM    DATA     BYTE      TH1
      00000088H   SFRSYM    DATA     BIT       IT0
      000000D6H   SFRSYM    DATA     BYTE      T2H
      000000A8H.2 SFRSYM    DATA     BIT       EX1
      00000098H.3 SFRSYM    DATA     BIT       TB8
LX51 LINKER/LOCATER V4.41                                                             05/12/2022  17:30:48  PAGE 60


      00000088H.2 SFRSYM    DATA     BIT       IT1
      000000D4H   SFRSYM    DATA     BYTE      T3H
      000000D0H   SFRSYM    DATA     BIT       P
      000000D2H   SFRSYM    DATA     BYTE      T4H
      00000098H.7 SFRSYM    DATA     BIT       SM0
      0000008AH   SFRSYM    DATA     BYTE      TL0
      00000098H.6 SFRSYM    DATA     BIT       SM1
      0000008BH   SFRSYM    DATA     BYTE      TL1
      000000D7H   SFRSYM    DATA     BYTE      T2L
      00000098H.5 SFRSYM    DATA     BIT       SM2
      000000D5H   SFRSYM    DATA     BYTE      T3L
      000000D3H   SFRSYM    DATA     BYTE      T4L
      000000B8H.1 SFRSYM    DATA     BIT       PT0
      000000D0H.3 SFRSYM    DATA     BIT       RS0
      000000B8H.3 SFRSYM    DATA     BIT       PT1
      000000D0H.4 SFRSYM    DATA     BIT       RS1
      000000C2H   SFRSYM    DATA     BYTE      IAP_DATA
      00000088H.4 SFRSYM    DATA     BIT       TR0
      00000088H.6 SFRSYM    DATA     BIT       TR1
      000000C1H   SFRSYM    DATA     BYTE      WDT_CONTR
      000000B8H   SFRSYM    DATA     BIT       PX0
      000000B8H.2 SFRSYM    DATA     BIT       PX1
      0000009FH   SFRSYM    DATA     BYTE      IRTRIM
      00000083H   SFRSYM    DATA     BYTE      DPH
      000000D1H   SFRSYM    DATA     BYTE      T4T3M
      000000BEH   SFRSYM    DATA     BYTE      ADC_RESL
      00000082H   SFRSYM    DATA     BYTE      DPL
      000000CDH   SFRSYM    DATA     BYTE      SPSTAT
      000000B7H   SFRSYM    DATA     BYTE      IPH
      0000009BH   SFRSYM    DATA     BYTE      S2BUF
      000000ADH   SFRSYM    DATA     BYTE      S3BUF
      00000098H.4 SFRSYM    DATA     BIT       REN
      00000085H   SFRSYM    DATA     BYTE      S4BUF
      0000009AH   SFRSYM    DATA     BYTE      S2CON
      000000E3H   SFRSYM    DATA     BYTE      DPS
      000000ACH   SFRSYM    DATA     BYTE      S3CON
      00000084H   SFRSYM    DATA     BYTE      S4CON
      000000EFH   SFRSYM    DATA     BYTE      AUXINTIF
      000000B9H   SFRSYM    DATA     BYTE      SADEN
      000000A9H   SFRSYM    DATA     BYTE      SADDR
      000000C6H   SFRSYM    DATA     BYTE      IAP_TRIG
      000000D0H.5 SFRSYM    DATA     BIT       F0
      0000009DH   SFRSYM    DATA     BYTE      IRCBAND
      000000D0H   SFRSYM    DATA     BYTE      PSW
      000000CFH   SFRSYM    DATA     BYTE      SPDAT
      00000094H   SFRSYM    DATA     BYTE      P0M0
      00000007H   SYMBOL    DATA     BYTE      write_time
      00000004H   SYMBOL    DATA     WORD      addr
      00000004H   SYMBOL    DATA     WORD      addr
      00000006H   SYMBOL    DATA     WORD      addr

      ---         MODULE    ---      ---       ZF_DELAY
      0200023AH   PUBLIC    XDATA    WORD      zf_delay_us
      02000238H   PUBLIC    XDATA    WORD      zf_delay_ms
      010017D1H   PUBLIC    CODE     ---       _delay_ms
      01001596H   PUBLIC    CODE     ---       delay_init
      00000093H   SFRSYM    DATA     BYTE      P0M1
      00000092H   SFRSYM    DATA     BYTE      P1M0
      00000096H   SFRSYM    DATA     BYTE      P2M0
      00000091H   SFRSYM    DATA     BYTE      P1M1
      00000080H   SFRSYM    DATA     BYTE      P0
      000000B2H   SFRSYM    DATA     BYTE      P3M0
      00000095H   SFRSYM    DATA     BYTE      P2M1
      00000090H   SFRSYM    DATA     BYTE      P1
      000000B4H   SFRSYM    DATA     BYTE      P4M0
LX51 LINKER/LOCATER V4.41                                                             05/12/2022  17:30:48  PAGE 61


      000000B1H   SFRSYM    DATA     BYTE      P3M1
      000000A0H   SFRSYM    DATA     BYTE      P2
      000000CAH   SFRSYM    DATA     BYTE      P5M0
      000000B3H   SFRSYM    DATA     BYTE      P4M1
      000000B0H   SFRSYM    DATA     BYTE      P3
      000000ABH   SFRSYM    DATA     BYTE      WKTCH
      000000D0H.6 SFRSYM    DATA     BIT       AC
      000000CCH   SFRSYM    DATA     BYTE      P6M0
      000000C9H   SFRSYM    DATA     BYTE      P5M1
      000000C0H   SFRSYM    DATA     BYTE      P4
      000000E2H   SFRSYM    DATA     BYTE      P7M0
      000000CBH   SFRSYM    DATA     BYTE      P6M1
      000000C8H   SFRSYM    DATA     BYTE      P5
      000000E8H   SFRSYM    DATA     BYTE      P6
      000000E1H   SFRSYM    DATA     BYTE      P7M1
      000000A8H.7 SFRSYM    DATA     BIT       EA
      000000F8H   SFRSYM    DATA     BYTE      P7
      000000AAH   SFRSYM    DATA     BYTE      WKTCL
      000000CEH   SFRSYM    DATA     BYTE      SPCTL
      000000A2H   SFRSYM    DATA     BYTE      P_SW1
      000000BAH   SFRSYM    DATA     BYTE      P_SW2
      000000E5H   SFRSYM    DATA     BYTE      DPH1
      000000A8H.5 SFRSYM    DATA     BIT       EADC
      000000A8H   SFRSYM    DATA     BYTE      IE
      000000C5H   SFRSYM    DATA     BYTE      IAP_CMD
      000000E4H   SFRSYM    DATA     BYTE      DPL1
      000000BDH   SFRSYM    DATA     BYTE      ADC_RES
      000000B6H   SFRSYM    DATA     BYTE      IP2H
      000000EEH   SFRSYM    DATA     BYTE      IP3H
      000000AEH   SFRSYM    DATA     BYTE      TA
      0000008FH   SFRSYM    DATA     BYTE      INTCLKO
      000000A8H.4 SFRSYM    DATA     BIT       ES
      000000B8H.5 SFRSYM    DATA     BIT       PADC
      000000B8H   SFRSYM    DATA     BYTE      IP
      000000DEH   SFRSYM    DATA     BYTE      ADCCFG
      00000098H   SFRSYM    DATA     BIT       RI
      000000D0H.7 SFRSYM    DATA     BIT       CY
      00000098H.1 SFRSYM    DATA     BIT       TI
      000000C3H   SFRSYM    DATA     BYTE      IAP_ADDRH
      000000B8H.4 SFRSYM    DATA     BIT       PS
      00000081H   SFRSYM    DATA     BYTE      SP
      000000C4H   SFRSYM    DATA     BYTE      IAP_ADDRL
      000000D0H.2 SFRSYM    DATA     BIT       OV
      000000B8H.7 SFRSYM    DATA     BIT       PPCA
      0000009EH   SFRSYM    DATA     BYTE      LIRTRIM
      000000E6H   SFRSYM    DATA     BYTE      CMPCR1
      000000E7H   SFRSYM    DATA     BYTE      CMPCR2
      000000A8H.6 SFRSYM    DATA     BIT       ELVD
      00000080H   SFRSYM    DATA     BIT       P00
      000000BCH   SFRSYM    DATA     BYTE      ADC_CONTR
      00000099H   SFRSYM    DATA     BYTE      SBUF
      00000090H   SFRSYM    DATA     BIT       P10
      00000087H   SFRSYM    DATA     BYTE      PCON
      00000080H.1 SFRSYM    DATA     BIT       P01
      000000A0H   SFRSYM    DATA     BIT       P20
      00000090H.1 SFRSYM    DATA     BIT       P11
      00000080H.2 SFRSYM    DATA     BIT       P02
      000000F5H   SFRSYM    DATA     BYTE      IAP_TPS
      000000B0H   SFRSYM    DATA     BIT       P30
      000000A0H.1 SFRSYM    DATA     BIT       P21
      00000090H.2 SFRSYM    DATA     BIT       P12
      00000080H.3 SFRSYM    DATA     BIT       P03
      000000C0H   SFRSYM    DATA     BIT       P40
      000000B0H.1 SFRSYM    DATA     BIT       P31
      000000A0H.2 SFRSYM    DATA     BIT       P22
LX51 LINKER/LOCATER V4.41                                                             05/12/2022  17:30:48  PAGE 62


      00000098H   SFRSYM    DATA     BYTE      SCON
      00000090H.3 SFRSYM    DATA     BIT       P13
      00000080H.4 SFRSYM    DATA     BIT       P04
      000000C8H   SFRSYM    DATA     BIT       P50
      000000C0H.1 SFRSYM    DATA     BIT       P41
      000000B0H.2 SFRSYM    DATA     BIT       P32
      000000A0H.3 SFRSYM    DATA     BIT       P23
      00000090H.4 SFRSYM    DATA     BIT       P14
      00000089H   SFRSYM    DATA     BYTE      TMOD
      00000088H   SFRSYM    DATA     BYTE      TCON
      00000080H.5 SFRSYM    DATA     BIT       P05
      000000E8H   SFRSYM    DATA     BIT       P60
      000000C8H.1 SFRSYM    DATA     BIT       P51
      000000C0H.2 SFRSYM    DATA     BIT       P42
      000000B0H.3 SFRSYM    DATA     BIT       P33
      000000A0H.4 SFRSYM    DATA     BIT       P24
      00000090H.5 SFRSYM    DATA     BIT       P15
      00000080H.6 SFRSYM    DATA     BIT       P06
      000000F8H   SFRSYM    DATA     BIT       P70
      000000E8H.1 SFRSYM    DATA     BIT       P61
      000000C8H.2 SFRSYM    DATA     BIT       P52
      000000C0H.3 SFRSYM    DATA     BIT       P43
      000000B8H.6 SFRSYM    DATA     BIT       PLVD
      000000B0H.4 SFRSYM    DATA     BIT       P34
      000000A0H.5 SFRSYM    DATA     BIT       P25
      00000090H.6 SFRSYM    DATA     BIT       P16
      00000080H.7 SFRSYM    DATA     BIT       P07
      000000F8H.1 SFRSYM    DATA     BIT       P71
      000000E8H.2 SFRSYM    DATA     BIT       P62
      000000C8H.3 SFRSYM    DATA     BIT       P53
      000000C0H.4 SFRSYM    DATA     BIT       P44
      000000B0H.5 SFRSYM    DATA     BIT       P35
      000000A0H.6 SFRSYM    DATA     BIT       P26
      00000090H.7 SFRSYM    DATA     BIT       P17
      000000F8H.2 SFRSYM    DATA     BIT       P72
      000000E8H.3 SFRSYM    DATA     BIT       P63
      000000C8H.4 SFRSYM    DATA     BIT       P54
      000000C0H.5 SFRSYM    DATA     BIT       P45
      000000B0H.6 SFRSYM    DATA     BIT       P36
      000000A0H.7 SFRSYM    DATA     BIT       P27
      000000F8H.3 SFRSYM    DATA     BIT       P73
      000000E8H.4 SFRSYM    DATA     BIT       P64
      000000C8H.5 SFRSYM    DATA     BIT       P55
      000000C0H.6 SFRSYM    DATA     BIT       P46
      000000B0H.7 SFRSYM    DATA     BIT       P37
      000000F8H.4 SFRSYM    DATA     BIT       P74
      000000E8H.5 SFRSYM    DATA     BIT       P65
      000000C8H.6 SFRSYM    DATA     BIT       P56
      000000C0H.7 SFRSYM    DATA     BIT       P47
      000000F8H.5 SFRSYM    DATA     BIT       P75
      000000E8H.6 SFRSYM    DATA     BIT       P66
      000000C8H.7 SFRSYM    DATA     BIT       P57
      000000F8H.6 SFRSYM    DATA     BIT       P76
      000000E8H.7 SFRSYM    DATA     BIT       P67
      000000F8H.7 SFRSYM    DATA     BIT       P77
      00000088H.1 SFRSYM    DATA     BIT       IE0
      00000088H.3 SFRSYM    DATA     BIT       IE1
      000000AFH   SFRSYM    DATA     BYTE      IE2
      000000F0H   SFRSYM    DATA     BYTE      B
      0000008EH   SFRSYM    DATA     BYTE      AUXR
      000000FCH   SFRSYM    DATA     BYTE      USBADR
      000000C7H   SFRSYM    DATA     BYTE      IAP_CONTR
      000000ECH   SFRSYM    DATA     BYTE      USBDAT
      000000DCH   SFRSYM    DATA     BYTE      USBCLK
      000000E0H   SFRSYM    DATA     BYTE      ACC
LX51 LINKER/LOCATER V4.41                                                             05/12/2022  17:30:48  PAGE 63


      000000A8H.1 SFRSYM    DATA     BIT       ET0
      000000A8H.3 SFRSYM    DATA     BIT       ET1
      00000088H.5 SFRSYM    DATA     BIT       TF0
      000000FFH   SFRSYM    DATA     BYTE      RSTCFG
      000000B5H   SFRSYM    DATA     BYTE      IP2
      00000088H.7 SFRSYM    DATA     BIT       TF1
      000000F4H   SFRSYM    DATA     BYTE      USBCON
      000000DFH   SFRSYM    DATA     BYTE      IP3
      00000098H.2 SFRSYM    DATA     BIT       RB8
      0000008CH   SFRSYM    DATA     BYTE      TH0
      000000A8H   SFRSYM    DATA     BIT       EX0
      0000008DH   SFRSYM    DATA     BYTE      TH1
      00000088H   SFRSYM    DATA     BIT       IT0
      000000D6H   SFRSYM    DATA     BYTE      T2H
      000000A8H.2 SFRSYM    DATA     BIT       EX1
      00000098H.3 SFRSYM    DATA     BIT       TB8
      00000088H.2 SFRSYM    DATA     BIT       IT1
      000000D4H   SFRSYM    DATA     BYTE      T3H
      000000D0H   SFRSYM    DATA     BIT       P
      000000D2H   SFRSYM    DATA     BYTE      T4H
      00000098H.7 SFRSYM    DATA     BIT       SM0
      0000008AH   SFRSYM    DATA     BYTE      TL0
      00000098H.6 SFRSYM    DATA     BIT       SM1
      0000008BH   SFRSYM    DATA     BYTE      TL1
      000000D7H   SFRSYM    DATA     BYTE      T2L
      00000098H.5 SFRSYM    DATA     BIT       SM2
      000000D5H   SFRSYM    DATA     BYTE      T3L
      000000D3H   SFRSYM    DATA     BYTE      T4L
      000000B8H.1 SFRSYM    DATA     BIT       PT0
      000000D0H.3 SFRSYM    DATA     BIT       RS0
      000000B8H.3 SFRSYM    DATA     BIT       PT1
      000000D0H.4 SFRSYM    DATA     BIT       RS1
      000000C2H   SFRSYM    DATA     BYTE      IAP_DATA
      00000088H.4 SFRSYM    DATA     BIT       TR0
      00000088H.6 SFRSYM    DATA     BIT       TR1
      000000C1H   SFRSYM    DATA     BYTE      WDT_CONTR
      000000B8H   SFRSYM    DATA     BIT       PX0
      000000B8H.2 SFRSYM    DATA     BIT       PX1
      0000009FH   SFRSYM    DATA     BYTE      IRTRIM
      00000083H   SFRSYM    DATA     BYTE      DPH
      000000D1H   SFRSYM    DATA     BYTE      T4T3M
      000000BEH   SFRSYM    DATA     BYTE      ADC_RESL
      00000082H   SFRSYM    DATA     BYTE      DPL
      000000CDH   SFRSYM    DATA     BYTE      SPSTAT
      000000B7H   SFRSYM    DATA     BYTE      IPH
      0000009BH   SFRSYM    DATA     BYTE      S2BUF
      000000ADH   SFRSYM    DATA     BYTE      S3BUF
      00000098H.4 SFRSYM    DATA     BIT       REN
      00000085H   SFRSYM    DATA     BYTE      S4BUF
      0000009AH   SFRSYM    DATA     BYTE      S2CON
      000000E3H   SFRSYM    DATA     BYTE      DPS
      000000ACH   SFRSYM    DATA     BYTE      S3CON
      00000084H   SFRSYM    DATA     BYTE      S4CON
      000000EFH   SFRSYM    DATA     BYTE      AUXINTIF
      000000B9H   SFRSYM    DATA     BYTE      SADEN
      000000A9H   SFRSYM    DATA     BYTE      SADDR
      000000C6H   SFRSYM    DATA     BYTE      IAP_TRIG
      000000D0H.5 SFRSYM    DATA     BIT       F0
      0000009DH   SFRSYM    DATA     BYTE      IRCBAND
      000000D0H   SFRSYM    DATA     BYTE      PSW
      000000CFH   SFRSYM    DATA     BYTE      SPDAT
      00000094H   SFRSYM    DATA     BYTE      P0M0

      01001596H   BLOCK     CODE     ---       LVL=0
      01001596H   LINE      CODE     ---       #34
LX51 LINKER/LOCATER V4.41                                                             05/12/2022  17:30:48  PAGE 64


      01001596H   LINE      CODE     ---       #35
      01001596H   LINE      CODE     ---       #36
      010015B6H   LINE      CODE     ---       #37
      010015DDH   LINE      CODE     ---       #38
      01001607H   LINE      CODE     ---       #40
      ---         BLOCKEND  ---      ---       LVL=0

      010017D1H   BLOCK     CODE     ---       LVL=0
      00000006H   SYMBOL    DATA     WORD      ms
      010017D1H   BLOCK     CODE     NEAR LAB  LVL=1
      00000004H   SYMBOL    DATA     WORD      i
      ---         BLOCKEND  ---      ---       LVL=1
      010017D1H   LINE      CODE     ---       #47
      010017D1H   LINE      CODE     ---       #48
      010017D1H   LINE      CODE     ---       #50
      010017D1H   LINE      CODE     ---       #51
      010017D9H   LINE      CODE     ---       #52
      010017E4H   LINE      CODE     ---       #53
      010017EDH   LINE      CODE     ---       #55
      ---         BLOCKEND  ---      ---       LVL=0

      ---         MODULE    ---      ---       ZF_NVIC
      00000093H   SFRSYM    DATA     BYTE      P0M1
      00000092H   SFRSYM    DATA     BYTE      P1M0
      00000096H   SFRSYM    DATA     BYTE      P2M0
      00000091H   SFRSYM    DATA     BYTE      P1M1
      00000080H   SFRSYM    DATA     BYTE      P0
      000000B2H   SFRSYM    DATA     BYTE      P3M0
      00000095H   SFRSYM    DATA     BYTE      P2M1
      00000090H   SFRSYM    DATA     BYTE      P1
      000000B4H   SFRSYM    DATA     BYTE      P4M0
      000000B1H   SFRSYM    DATA     BYTE      P3M1
      000000A0H   SFRSYM    DATA     BYTE      P2
      000000CAH   SFRSYM    DATA     BYTE      P5M0
      000000B3H   SFRSYM    DATA     BYTE      P4M1
      000000B0H   SFRSYM    DATA     BYTE      P3
      000000ABH   SFRSYM    DATA     BYTE      WKTCH
      000000D0H.6 SFRSYM    DATA     BIT       AC
      000000CCH   SFRSYM    DATA     BYTE      P6M0
      000000C9H   SFRSYM    DATA     BYTE      P5M1
      000000C0H   SFRSYM    DATA     BYTE      P4
      000000E2H   SFRSYM    DATA     BYTE      P7M0
      000000CBH   SFRSYM    DATA     BYTE      P6M1
      000000C8H   SFRSYM    DATA     BYTE      P5
      000000E8H   SFRSYM    DATA     BYTE      P6
      000000E1H   SFRSYM    DATA     BYTE      P7M1
      000000A8H.7 SFRSYM    DATA     BIT       EA
      000000F8H   SFRSYM    DATA     BYTE      P7
      000000AAH   SFRSYM    DATA     BYTE      WKTCL
      000000CEH   SFRSYM    DATA     BYTE      SPCTL
      000000A2H   SFRSYM    DATA     BYTE      P_SW1
      000000BAH   SFRSYM    DATA     BYTE      P_SW2
      000000E5H   SFRSYM    DATA     BYTE      DPH1
      000000A8H.5 SFRSYM    DATA     BIT       EADC
      000000A8H   SFRSYM    DATA     BYTE      IE
      000000C5H   SFRSYM    DATA     BYTE      IAP_CMD
      000000E4H   SFRSYM    DATA     BYTE      DPL1
      000000BDH   SFRSYM    DATA     BYTE      ADC_RES
      000000B6H   SFRSYM    DATA     BYTE      IP2H
      000000EEH   SFRSYM    DATA     BYTE      IP3H
      000000AEH   SFRSYM    DATA     BYTE      TA
      0000008FH   SFRSYM    DATA     BYTE      INTCLKO
      000000A8H.4 SFRSYM    DATA     BIT       ES
      000000B8H.5 SFRSYM    DATA     BIT       PADC
      000000B8H   SFRSYM    DATA     BYTE      IP
LX51 LINKER/LOCATER V4.41                                                             05/12/2022  17:30:48  PAGE 65


      000000DEH   SFRSYM    DATA     BYTE      ADCCFG
      00000098H   SFRSYM    DATA     BIT       RI
      000000D0H.7 SFRSYM    DATA     BIT       CY
      00000098H.1 SFRSYM    DATA     BIT       TI
      000000C3H   SFRSYM    DATA     BYTE      IAP_ADDRH
      000000B8H.4 SFRSYM    DATA     BIT       PS
      00000081H   SFRSYM    DATA     BYTE      SP
      000000C4H   SFRSYM    DATA     BYTE      IAP_ADDRL
      000000D0H.2 SFRSYM    DATA     BIT       OV
      000000B8H.7 SFRSYM    DATA     BIT       PPCA
      0000009EH   SFRSYM    DATA     BYTE      LIRTRIM
      000000E6H   SFRSYM    DATA     BYTE      CMPCR1
      000000E7H   SFRSYM    DATA     BYTE      CMPCR2
      000000A8H.6 SFRSYM    DATA     BIT       ELVD
      00000080H   SFRSYM    DATA     BIT       P00
      000000BCH   SFRSYM    DATA     BYTE      ADC_CONTR
      00000099H   SFRSYM    DATA     BYTE      SBUF
      00000090H   SFRSYM    DATA     BIT       P10
      00000087H   SFRSYM    DATA     BYTE      PCON
      00000080H.1 SFRSYM    DATA     BIT       P01
      000000A0H   SFRSYM    DATA     BIT       P20
      00000090H.1 SFRSYM    DATA     BIT       P11
      00000080H.2 SFRSYM    DATA     BIT       P02
      000000F5H   SFRSYM    DATA     BYTE      IAP_TPS
      000000B0H   SFRSYM    DATA     BIT       P30
      000000A0H.1 SFRSYM    DATA     BIT       P21
      00000090H.2 SFRSYM    DATA     BIT       P12
      00000080H.3 SFRSYM    DATA     BIT       P03
      000000C0H   SFRSYM    DATA     BIT       P40
      000000B0H.1 SFRSYM    DATA     BIT       P31
      000000A0H.2 SFRSYM    DATA     BIT       P22
      00000098H   SFRSYM    DATA     BYTE      SCON
      00000090H.3 SFRSYM    DATA     BIT       P13
      00000080H.4 SFRSYM    DATA     BIT       P04
      000000C8H   SFRSYM    DATA     BIT       P50
      000000C0H.1 SFRSYM    DATA     BIT       P41
      000000B0H.2 SFRSYM    DATA     BIT       P32
      000000A0H.3 SFRSYM    DATA     BIT       P23
      00000090H.4 SFRSYM    DATA     BIT       P14
      00000089H   SFRSYM    DATA     BYTE      TMOD
      00000088H   SFRSYM    DATA     BYTE      TCON
      00000080H.5 SFRSYM    DATA     BIT       P05
      000000E8H   SFRSYM    DATA     BIT       P60
      000000C8H.1 SFRSYM    DATA     BIT       P51
      000000C0H.2 SFRSYM    DATA     BIT       P42
      000000B0H.3 SFRSYM    DATA     BIT       P33
      000000A0H.4 SFRSYM    DATA     BIT       P24
      00000090H.5 SFRSYM    DATA     BIT       P15
      00000080H.6 SFRSYM    DATA     BIT       P06
      000000F8H   SFRSYM    DATA     BIT       P70
      000000E8H.1 SFRSYM    DATA     BIT       P61
      000000C8H.2 SFRSYM    DATA     BIT       P52
      000000C0H.3 SFRSYM    DATA     BIT       P43
      000000B8H.6 SFRSYM    DATA     BIT       PLVD
      000000B0H.4 SFRSYM    DATA     BIT       P34
      000000A0H.5 SFRSYM    DATA     BIT       P25
      00000090H.6 SFRSYM    DATA     BIT       P16
      00000080H.7 SFRSYM    DATA     BIT       P07
      000000F8H.1 SFRSYM    DATA     BIT       P71
      000000E8H.2 SFRSYM    DATA     BIT       P62
      000000C8H.3 SFRSYM    DATA     BIT       P53
      000000C0H.4 SFRSYM    DATA     BIT       P44
      000000B0H.5 SFRSYM    DATA     BIT       P35
      000000A0H.6 SFRSYM    DATA     BIT       P26
      00000090H.7 SFRSYM    DATA     BIT       P17
LX51 LINKER/LOCATER V4.41                                                             05/12/2022  17:30:48  PAGE 66


      000000F8H.2 SFRSYM    DATA     BIT       P72
      000000E8H.3 SFRSYM    DATA     BIT       P63
      000000C8H.4 SFRSYM    DATA     BIT       P54
      000000C0H.5 SFRSYM    DATA     BIT       P45
      000000B0H.6 SFRSYM    DATA     BIT       P36
      000000A0H.7 SFRSYM    DATA     BIT       P27
      000000F8H.3 SFRSYM    DATA     BIT       P73
      000000E8H.4 SFRSYM    DATA     BIT       P64
      000000C8H.5 SFRSYM    DATA     BIT       P55
      000000C0H.6 SFRSYM    DATA     BIT       P46
      000000B0H.7 SFRSYM    DATA     BIT       P37
      000000F8H.4 SFRSYM    DATA     BIT       P74
      000000E8H.5 SFRSYM    DATA     BIT       P65
      000000C8H.6 SFRSYM    DATA     BIT       P56
      000000C0H.7 SFRSYM    DATA     BIT       P47
      000000F8H.5 SFRSYM    DATA     BIT       P75
      000000E8H.6 SFRSYM    DATA     BIT       P66
      000000C8H.7 SFRSYM    DATA     BIT       P57
      000000F8H.6 SFRSYM    DATA     BIT       P76
      000000E8H.7 SFRSYM    DATA     BIT       P67
      000000F8H.7 SFRSYM    DATA     BIT       P77
      00000088H.1 SFRSYM    DATA     BIT       IE0
      00000088H.3 SFRSYM    DATA     BIT       IE1
      000000AFH   SFRSYM    DATA     BYTE      IE2
      000000F0H   SFRSYM    DATA     BYTE      B
      0000008EH   SFRSYM    DATA     BYTE      AUXR
      000000FCH   SFRSYM    DATA     BYTE      USBADR
      000000C7H   SFRSYM    DATA     BYTE      IAP_CONTR
      000000ECH   SFRSYM    DATA     BYTE      USBDAT
      000000DCH   SFRSYM    DATA     BYTE      USBCLK
      000000E0H   SFRSYM    DATA     BYTE      ACC
      000000A8H.1 SFRSYM    DATA     BIT       ET0
      000000A8H.3 SFRSYM    DATA     BIT       ET1
      00000088H.5 SFRSYM    DATA     BIT       TF0
      000000FFH   SFRSYM    DATA     BYTE      RSTCFG
      000000B5H   SFRSYM    DATA     BYTE      IP2
      00000088H.7 SFRSYM    DATA     BIT       TF1
      000000F4H   SFRSYM    DATA     BYTE      USBCON
      000000DFH   SFRSYM    DATA     BYTE      IP3
      00000098H.2 SFRSYM    DATA     BIT       RB8
      0000008CH   SFRSYM    DATA     BYTE      TH0
      000000A8H   SFRSYM    DATA     BIT       EX0
      0000008DH   SFRSYM    DATA     BYTE      TH1
      00000088H   SFRSYM    DATA     BIT       IT0
      000000D6H   SFRSYM    DATA     BYTE      T2H
      000000A8H.2 SFRSYM    DATA     BIT       EX1
      00000098H.3 SFRSYM    DATA     BIT       TB8
      00000088H.2 SFRSYM    DATA     BIT       IT1
      000000D4H   SFRSYM    DATA     BYTE      T3H
      000000D0H   SFRSYM    DATA     BIT       P
      000000D2H   SFRSYM    DATA     BYTE      T4H
      00000098H.7 SFRSYM    DATA     BIT       SM0
      0000008AH   SFRSYM    DATA     BYTE      TL0
      00000098H.6 SFRSYM    DATA     BIT       SM1
      0000008BH   SFRSYM    DATA     BYTE      TL1
      000000D7H   SFRSYM    DATA     BYTE      T2L
      00000098H.5 SFRSYM    DATA     BIT       SM2
      000000D5H   SFRSYM    DATA     BYTE      T3L
      000000D3H   SFRSYM    DATA     BYTE      T4L
      000000B8H.1 SFRSYM    DATA     BIT       PT0
      000000D0H.3 SFRSYM    DATA     BIT       RS0
      000000B8H.3 SFRSYM    DATA     BIT       PT1
      000000D0H.4 SFRSYM    DATA     BIT       RS1
      000000C2H   SFRSYM    DATA     BYTE      IAP_DATA
      00000088H.4 SFRSYM    DATA     BIT       TR0
LX51 LINKER/LOCATER V4.41                                                             05/12/2022  17:30:48  PAGE 67


      00000088H.6 SFRSYM    DATA     BIT       TR1
      000000C1H   SFRSYM    DATA     BYTE      WDT_CONTR
      000000B8H   SFRSYM    DATA     BIT       PX0
      000000B8H.2 SFRSYM    DATA     BIT       PX1
      0000009FH   SFRSYM    DATA     BYTE      IRTRIM
      00000083H   SFRSYM    DATA     BYTE      DPH
      000000D1H   SFRSYM    DATA     BYTE      T4T3M
      000000BEH   SFRSYM    DATA     BYTE      ADC_RESL
      00000082H   SFRSYM    DATA     BYTE      DPL
      000000CDH   SFRSYM    DATA     BYTE      SPSTAT
      000000B7H   SFRSYM    DATA     BYTE      IPH
      0000009BH   SFRSYM    DATA     BYTE      S2BUF
      000000ADH   SFRSYM    DATA     BYTE      S3BUF
      00000098H.4 SFRSYM    DATA     BIT       REN
      00000085H   SFRSYM    DATA     BYTE      S4BUF
      0000009AH   SFRSYM    DATA     BYTE      S2CON
      000000E3H   SFRSYM    DATA     BYTE      DPS
      000000ACH   SFRSYM    DATA     BYTE      S3CON
      00000084H   SFRSYM    DATA     BYTE      S4CON
      000000EFH   SFRSYM    DATA     BYTE      AUXINTIF
      000000B9H   SFRSYM    DATA     BYTE      SADEN
      000000A9H   SFRSYM    DATA     BYTE      SADDR
      000000C6H   SFRSYM    DATA     BYTE      IAP_TRIG
      000000D0H.5 SFRSYM    DATA     BIT       F0
      0000009DH   SFRSYM    DATA     BYTE      IRCBAND
      000000D0H   SFRSYM    DATA     BYTE      PSW
      000000CFH   SFRSYM    DATA     BYTE      SPDAT
      00000094H   SFRSYM    DATA     BYTE      P0M0
      00000007H   SYMBOL    DATA     BYTE      irqn
      00000005H   SYMBOL    DATA     BYTE      priority

      ---         MODULE    ---      ---       ZF_MDU16
      00000093H   SFRSYM    DATA     BYTE      P0M1
      00000092H   SFRSYM    DATA     BYTE      P1M0
      00000096H   SFRSYM    DATA     BYTE      P2M0
      00000091H   SFRSYM    DATA     BYTE      P1M1
      00000080H   SFRSYM    DATA     BYTE      P0
      000000B2H   SFRSYM    DATA     BYTE      P3M0
      00000095H   SFRSYM    DATA     BYTE      P2M1
      00000090H   SFRSYM    DATA     BYTE      P1
      000000B4H   SFRSYM    DATA     BYTE      P4M0
      000000B1H   SFRSYM    DATA     BYTE      P3M1
      000000A0H   SFRSYM    DATA     BYTE      P2
      000000CAH   SFRSYM    DATA     BYTE      P5M0
      000000B3H   SFRSYM    DATA     BYTE      P4M1
      000000B0H   SFRSYM    DATA     BYTE      P3
      000000ABH   SFRSYM    DATA     BYTE      WKTCH
      000000D0H.6 SFRSYM    DATA     BIT       AC
      000000CCH   SFRSYM    DATA     BYTE      P6M0
      000000C9H   SFRSYM    DATA     BYTE      P5M1
      000000C0H   SFRSYM    DATA     BYTE      P4
      000000E2H   SFRSYM    DATA     BYTE      P7M0
      000000CBH   SFRSYM    DATA     BYTE      P6M1
      000000C8H   SFRSYM    DATA     BYTE      P5
      000000E8H   SFRSYM    DATA     BYTE      P6
      000000E1H   SFRSYM    DATA     BYTE      P7M1
      000000A8H.7 SFRSYM    DATA     BIT       EA
      000000F8H   SFRSYM    DATA     BYTE      P7
      000000AAH   SFRSYM    DATA     BYTE      WKTCL
      000000CEH   SFRSYM    DATA     BYTE      SPCTL
      000000A2H   SFRSYM    DATA     BYTE      P_SW1
      000000BAH   SFRSYM    DATA     BYTE      P_SW2
      000000E5H   SFRSYM    DATA     BYTE      DPH1
      000000A8H.5 SFRSYM    DATA     BIT       EADC
      000000A8H   SFRSYM    DATA     BYTE      IE
LX51 LINKER/LOCATER V4.41                                                             05/12/2022  17:30:48  PAGE 68


      000000C5H   SFRSYM    DATA     BYTE      IAP_CMD
      000000E4H   SFRSYM    DATA     BYTE      DPL1
      000000BDH   SFRSYM    DATA     BYTE      ADC_RES
      000000B6H   SFRSYM    DATA     BYTE      IP2H
      000000EEH   SFRSYM    DATA     BYTE      IP3H
      000000AEH   SFRSYM    DATA     BYTE      TA
      0000008FH   SFRSYM    DATA     BYTE      INTCLKO
      000000A8H.4 SFRSYM    DATA     BIT       ES
      000000B8H.5 SFRSYM    DATA     BIT       PADC
      000000B8H   SFRSYM    DATA     BYTE      IP
      000000DEH   SFRSYM    DATA     BYTE      ADCCFG
      00000098H   SFRSYM    DATA     BIT       RI
      000000D0H.7 SFRSYM    DATA     BIT       CY
      00000098H.1 SFRSYM    DATA     BIT       TI
      000000C3H   SFRSYM    DATA     BYTE      IAP_ADDRH
      000000B8H.4 SFRSYM    DATA     BIT       PS
      00000081H   SFRSYM    DATA     BYTE      SP
      000000C4H   SFRSYM    DATA     BYTE      IAP_ADDRL
      000000D0H.2 SFRSYM    DATA     BIT       OV
      000000B8H.7 SFRSYM    DATA     BIT       PPCA
      0000009EH   SFRSYM    DATA     BYTE      LIRTRIM
      000000E6H   SFRSYM    DATA     BYTE      CMPCR1
      000000E7H   SFRSYM    DATA     BYTE      CMPCR2
      000000A8H.6 SFRSYM    DATA     BIT       ELVD
      00000080H   SFRSYM    DATA     BIT       P00
      000000BCH   SFRSYM    DATA     BYTE      ADC_CONTR
      00000099H   SFRSYM    DATA     BYTE      SBUF
      00000090H   SFRSYM    DATA     BIT       P10
      00000087H   SFRSYM    DATA     BYTE      PCON
      00000080H.1 SFRSYM    DATA     BIT       P01
      000000A0H   SFRSYM    DATA     BIT       P20
      00000090H.1 SFRSYM    DATA     BIT       P11
      00000080H.2 SFRSYM    DATA     BIT       P02
      000000F5H   SFRSYM    DATA     BYTE      IAP_TPS
      000000B0H   SFRSYM    DATA     BIT       P30
      000000A0H.1 SFRSYM    DATA     BIT       P21
      00000090H.2 SFRSYM    DATA     BIT       P12
      00000080H.3 SFRSYM    DATA     BIT       P03
      000000C0H   SFRSYM    DATA     BIT       P40
      000000B0H.1 SFRSYM    DATA     BIT       P31
      000000A0H.2 SFRSYM    DATA     BIT       P22
      00000098H   SFRSYM    DATA     BYTE      SCON
      00000090H.3 SFRSYM    DATA     BIT       P13
      00000080H.4 SFRSYM    DATA     BIT       P04
      000000C8H   SFRSYM    DATA     BIT       P50
      000000C0H.1 SFRSYM    DATA     BIT       P41
      000000B0H.2 SFRSYM    DATA     BIT       P32
      000000A0H.3 SFRSYM    DATA     BIT       P23
      00000090H.4 SFRSYM    DATA     BIT       P14
      00000089H   SFRSYM    DATA     BYTE      TMOD
      00000088H   SFRSYM    DATA     BYTE      TCON
      00000080H.5 SFRSYM    DATA     BIT       P05
      000000E8H   SFRSYM    DATA     BIT       P60
      000000C8H.1 SFRSYM    DATA     BIT       P51
      000000C0H.2 SFRSYM    DATA     BIT       P42
      000000B0H.3 SFRSYM    DATA     BIT       P33
      000000A0H.4 SFRSYM    DATA     BIT       P24
      00000090H.5 SFRSYM    DATA     BIT       P15
      00000080H.6 SFRSYM    DATA     BIT       P06
      000000F8H   SFRSYM    DATA     BIT       P70
      000000E8H.1 SFRSYM    DATA     BIT       P61
      000000C8H.2 SFRSYM    DATA     BIT       P52
      000000C0H.3 SFRSYM    DATA     BIT       P43
      000000B8H.6 SFRSYM    DATA     BIT       PLVD
      000000B0H.4 SFRSYM    DATA     BIT       P34
LX51 LINKER/LOCATER V4.41                                                             05/12/2022  17:30:48  PAGE 69


      000000A0H.5 SFRSYM    DATA     BIT       P25
      00000090H.6 SFRSYM    DATA     BIT       P16
      00000080H.7 SFRSYM    DATA     BIT       P07
      000000F8H.1 SFRSYM    DATA     BIT       P71
      000000E8H.2 SFRSYM    DATA     BIT       P62
      000000C8H.3 SFRSYM    DATA     BIT       P53
      000000C0H.4 SFRSYM    DATA     BIT       P44
      000000B0H.5 SFRSYM    DATA     BIT       P35
      000000A0H.6 SFRSYM    DATA     BIT       P26
      00000090H.7 SFRSYM    DATA     BIT       P17
      000000F8H.2 SFRSYM    DATA     BIT       P72
      000000E8H.3 SFRSYM    DATA     BIT       P63
      000000C8H.4 SFRSYM    DATA     BIT       P54
      000000C0H.5 SFRSYM    DATA     BIT       P45
      000000B0H.6 SFRSYM    DATA     BIT       P36
      000000A0H.7 SFRSYM    DATA     BIT       P27
      000000F8H.3 SFRSYM    DATA     BIT       P73
      000000E8H.4 SFRSYM    DATA     BIT       P64
      000000C8H.5 SFRSYM    DATA     BIT       P55
      000000C0H.6 SFRSYM    DATA     BIT       P46
      000000B0H.7 SFRSYM    DATA     BIT       P37
      000000F8H.4 SFRSYM    DATA     BIT       P74
      000000E8H.5 SFRSYM    DATA     BIT       P65
      000000C8H.6 SFRSYM    DATA     BIT       P56
      000000C0H.7 SFRSYM    DATA     BIT       P47
      000000F8H.5 SFRSYM    DATA     BIT       P75
      000000E8H.6 SFRSYM    DATA     BIT       P66
      000000C8H.7 SFRSYM    DATA     BIT       P57
      000000F8H.6 SFRSYM    DATA     BIT       P76
      000000E8H.7 SFRSYM    DATA     BIT       P67
      000000F8H.7 SFRSYM    DATA     BIT       P77
      00000088H.1 SFRSYM    DATA     BIT       IE0
      00000088H.3 SFRSYM    DATA     BIT       IE1
      000000AFH   SFRSYM    DATA     BYTE      IE2
      000000F0H   SFRSYM    DATA     BYTE      B
      0000008EH   SFRSYM    DATA     BYTE      AUXR
      000000FCH   SFRSYM    DATA     BYTE      USBADR
      000000C7H   SFRSYM    DATA     BYTE      IAP_CONTR
      000000ECH   SFRSYM    DATA     BYTE      USBDAT
      000000DCH   SFRSYM    DATA     BYTE      USBCLK
      000000E0H   SFRSYM    DATA     BYTE      ACC
      000000A8H.1 SFRSYM    DATA     BIT       ET0
      000000A8H.3 SFRSYM    DATA     BIT       ET1
      00000088H.5 SFRSYM    DATA     BIT       TF0
      000000FFH   SFRSYM    DATA     BYTE      RSTCFG
      000000B5H   SFRSYM    DATA     BYTE      IP2
      00000088H.7 SFRSYM    DATA     BIT       TF1
      000000F4H   SFRSYM    DATA     BYTE      USBCON
      000000DFH   SFRSYM    DATA     BYTE      IP3
      00000098H.2 SFRSYM    DATA     BIT       RB8
      0000008CH   SFRSYM    DATA     BYTE      TH0
      000000A8H   SFRSYM    DATA     BIT       EX0
      0000008DH   SFRSYM    DATA     BYTE      TH1
      00000088H   SFRSYM    DATA     BIT       IT0
      000000D6H   SFRSYM    DATA     BYTE      T2H
      000000A8H.2 SFRSYM    DATA     BIT       EX1
      00000098H.3 SFRSYM    DATA     BIT       TB8
      00000088H.2 SFRSYM    DATA     BIT       IT1
      000000D4H   SFRSYM    DATA     BYTE      T3H
      000000D0H   SFRSYM    DATA     BIT       P
      000000D2H   SFRSYM    DATA     BYTE      T4H
      00000098H.7 SFRSYM    DATA     BIT       SM0
      0000008AH   SFRSYM    DATA     BYTE      TL0
      00000098H.6 SFRSYM    DATA     BIT       SM1
      0000008BH   SFRSYM    DATA     BYTE      TL1
LX51 LINKER/LOCATER V4.41                                                             05/12/2022  17:30:48  PAGE 70


      000000D7H   SFRSYM    DATA     BYTE      T2L
      00000098H.5 SFRSYM    DATA     BIT       SM2
      000000D5H   SFRSYM    DATA     BYTE      T3L
      000000D3H   SFRSYM    DATA     BYTE      T4L
      000000B8H.1 SFRSYM    DATA     BIT       PT0
      000000D0H.3 SFRSYM    DATA     BIT       RS0
      000000B8H.3 SFRSYM    DATA     BIT       PT1
      000000D0H.4 SFRSYM    DATA     BIT       RS1
      000000C2H   SFRSYM    DATA     BYTE      IAP_DATA
      00000088H.4 SFRSYM    DATA     BIT       TR0
      00000088H.6 SFRSYM    DATA     BIT       TR1
      000000C1H   SFRSYM    DATA     BYTE      WDT_CONTR
      000000B8H   SFRSYM    DATA     BIT       PX0
      000000B8H.2 SFRSYM    DATA     BIT       PX1
      0000009FH   SFRSYM    DATA     BYTE      IRTRIM
      00000083H   SFRSYM    DATA     BYTE      DPH
      000000D1H   SFRSYM    DATA     BYTE      T4T3M
      000000BEH   SFRSYM    DATA     BYTE      ADC_RESL
      00000082H   SFRSYM    DATA     BYTE      DPL
      000000CDH   SFRSYM    DATA     BYTE      SPSTAT
      000000B7H   SFRSYM    DATA     BYTE      IPH
      0000009BH   SFRSYM    DATA     BYTE      S2BUF
      000000ADH   SFRSYM    DATA     BYTE      S3BUF
      00000098H.4 SFRSYM    DATA     BIT       REN
      00000085H   SFRSYM    DATA     BYTE      S4BUF
      0000009AH   SFRSYM    DATA     BYTE      S2CON
      000000E3H   SFRSYM    DATA     BYTE      DPS
      000000ACH   SFRSYM    DATA     BYTE      S3CON
      00000084H   SFRSYM    DATA     BYTE      S4CON
      000000EFH   SFRSYM    DATA     BYTE      AUXINTIF
      000000B9H   SFRSYM    DATA     BYTE      SADEN
      000000A9H   SFRSYM    DATA     BYTE      SADDR
      000000C6H   SFRSYM    DATA     BYTE      IAP_TRIG
      000000D0H.5 SFRSYM    DATA     BIT       F0
      0000009DH   SFRSYM    DATA     BYTE      IRCBAND
      000000D0H   SFRSYM    DATA     BYTE      PSW
      000000CFH   SFRSYM    DATA     BYTE      SPDAT
      00000094H   SFRSYM    DATA     BYTE      P0M0

      ---         MODULE    ---      ---       SEEKFREE_18TFT
      00000093H   SFRSYM    DATA     BYTE      P0M1
      00000092H   SFRSYM    DATA     BYTE      P1M0
      00000096H   SFRSYM    DATA     BYTE      P2M0
      00000091H   SFRSYM    DATA     BYTE      P1M1
      00000080H   SFRSYM    DATA     BYTE      P0
      000000B2H   SFRSYM    DATA     BYTE      P3M0
      00000095H   SFRSYM    DATA     BYTE      P2M1
      00000090H   SFRSYM    DATA     BYTE      P1
      000000B4H   SFRSYM    DATA     BYTE      P4M0
      000000B1H   SFRSYM    DATA     BYTE      P3M1
      000000A0H   SFRSYM    DATA     BYTE      P2
      000000CAH   SFRSYM    DATA     BYTE      P5M0
      000000B3H   SFRSYM    DATA     BYTE      P4M1
      000000B0H   SFRSYM    DATA     BYTE      P3
      000000ABH   SFRSYM    DATA     BYTE      WKTCH
      000000D0H.6 SFRSYM    DATA     BIT       AC
      000000CCH   SFRSYM    DATA     BYTE      P6M0
      000000C9H   SFRSYM    DATA     BYTE      P5M1
      000000C0H   SFRSYM    DATA     BYTE      P4
      000000E2H   SFRSYM    DATA     BYTE      P7M0
      000000CBH   SFRSYM    DATA     BYTE      P6M1
      000000C8H   SFRSYM    DATA     BYTE      P5
      000000E8H   SFRSYM    DATA     BYTE      P6
      000000E1H   SFRSYM    DATA     BYTE      P7M1
      000000A8H.7 SFRSYM    DATA     BIT       EA
LX51 LINKER/LOCATER V4.41                                                             05/12/2022  17:30:48  PAGE 71


      000000F8H   SFRSYM    DATA     BYTE      P7
      000000AAH   SFRSYM    DATA     BYTE      WKTCL
      000000CEH   SFRSYM    DATA     BYTE      SPCTL
      000000A2H   SFRSYM    DATA     BYTE      P_SW1
      000000BAH   SFRSYM    DATA     BYTE      P_SW2
      000000E5H   SFRSYM    DATA     BYTE      DPH1
      000000A8H.5 SFRSYM    DATA     BIT       EADC
      000000A8H   SFRSYM    DATA     BYTE      IE
      000000C5H   SFRSYM    DATA     BYTE      IAP_CMD
      000000E4H   SFRSYM    DATA     BYTE      DPL1
      000000BDH   SFRSYM    DATA     BYTE      ADC_RES
      000000B6H   SFRSYM    DATA     BYTE      IP2H
      000000EEH   SFRSYM    DATA     BYTE      IP3H
      000000AEH   SFRSYM    DATA     BYTE      TA
      0000008FH   SFRSYM    DATA     BYTE      INTCLKO
      000000A8H.4 SFRSYM    DATA     BIT       ES
      000000B8H.5 SFRSYM    DATA     BIT       PADC
      000000B8H   SFRSYM    DATA     BYTE      IP
      000000DEH   SFRSYM    DATA     BYTE      ADCCFG
      00000098H   SFRSYM    DATA     BIT       RI
      000000D0H.7 SFRSYM    DATA     BIT       CY
      00000098H.1 SFRSYM    DATA     BIT       TI
      000000C3H   SFRSYM    DATA     BYTE      IAP_ADDRH
      000000B8H.4 SFRSYM    DATA     BIT       PS
      00000081H   SFRSYM    DATA     BYTE      SP
      000000C4H   SFRSYM    DATA     BYTE      IAP_ADDRL
      000000D0H.2 SFRSYM    DATA     BIT       OV
      000000B8H.7 SFRSYM    DATA     BIT       PPCA
      0000009EH   SFRSYM    DATA     BYTE      LIRTRIM
      000000E6H   SFRSYM    DATA     BYTE      CMPCR1
      000000E7H   SFRSYM    DATA     BYTE      CMPCR2
      000000A8H.6 SFRSYM    DATA     BIT       ELVD
      00000080H   SFRSYM    DATA     BIT       P00
      000000BCH   SFRSYM    DATA     BYTE      ADC_CONTR
      00000099H   SFRSYM    DATA     BYTE      SBUF
      00000090H   SFRSYM    DATA     BIT       P10
      00000087H   SFRSYM    DATA     BYTE      PCON
      00000080H.1 SFRSYM    DATA     BIT       P01
      000000A0H   SFRSYM    DATA     BIT       P20
      00000090H.1 SFRSYM    DATA     BIT       P11
      00000080H.2 SFRSYM    DATA     BIT       P02
      000000F5H   SFRSYM    DATA     BYTE      IAP_TPS
      000000B0H   SFRSYM    DATA     BIT       P30
      000000A0H.1 SFRSYM    DATA     BIT       P21
      00000090H.2 SFRSYM    DATA     BIT       P12
      00000080H.3 SFRSYM    DATA     BIT       P03
      000000C0H   SFRSYM    DATA     BIT       P40
      000000B0H.1 SFRSYM    DATA     BIT       P31
      000000A0H.2 SFRSYM    DATA     BIT       P22
      00000098H   SFRSYM    DATA     BYTE      SCON
      00000090H.3 SFRSYM    DATA     BIT       P13
      00000080H.4 SFRSYM    DATA     BIT       P04
      000000C8H   SFRSYM    DATA     BIT       P50
      000000C0H.1 SFRSYM    DATA     BIT       P41
      000000B0H.2 SFRSYM    DATA     BIT       P32
      000000A0H.3 SFRSYM    DATA     BIT       P23
      00000090H.4 SFRSYM    DATA     BIT       P14
      00000089H   SFRSYM    DATA     BYTE      TMOD
      00000088H   SFRSYM    DATA     BYTE      TCON
      00000080H.5 SFRSYM    DATA     BIT       P05
      000000E8H   SFRSYM    DATA     BIT       P60
      000000C8H.1 SFRSYM    DATA     BIT       P51
      000000C0H.2 SFRSYM    DATA     BIT       P42
      000000B0H.3 SFRSYM    DATA     BIT       P33
      000000A0H.4 SFRSYM    DATA     BIT       P24
LX51 LINKER/LOCATER V4.41                                                             05/12/2022  17:30:48  PAGE 72


      00000090H.5 SFRSYM    DATA     BIT       P15
      00000080H.6 SFRSYM    DATA     BIT       P06
      000000F8H   SFRSYM    DATA     BIT       P70
      000000E8H.1 SFRSYM    DATA     BIT       P61
      000000C8H.2 SFRSYM    DATA     BIT       P52
      000000C0H.3 SFRSYM    DATA     BIT       P43
      000000B8H.6 SFRSYM    DATA     BIT       PLVD
      000000B0H.4 SFRSYM    DATA     BIT       P34
      000000A0H.5 SFRSYM    DATA     BIT       P25
      00000090H.6 SFRSYM    DATA     BIT       P16
      00000080H.7 SFRSYM    DATA     BIT       P07
      000000F8H.1 SFRSYM    DATA     BIT       P71
      000000E8H.2 SFRSYM    DATA     BIT       P62
      000000C8H.3 SFRSYM    DATA     BIT       P53
      000000C0H.4 SFRSYM    DATA     BIT       P44
      000000B0H.5 SFRSYM    DATA     BIT       P35
      000000A0H.6 SFRSYM    DATA     BIT       P26
      00000090H.7 SFRSYM    DATA     BIT       P17
      000000F8H.2 SFRSYM    DATA     BIT       P72
      000000E8H.3 SFRSYM    DATA     BIT       P63
      000000C8H.4 SFRSYM    DATA     BIT       P54
      000000C0H.5 SFRSYM    DATA     BIT       P45
      000000B0H.6 SFRSYM    DATA     BIT       P36
      000000A0H.7 SFRSYM    DATA     BIT       P27
      000000F8H.3 SFRSYM    DATA     BIT       P73
      000000E8H.4 SFRSYM    DATA     BIT       P64
      000000C8H.5 SFRSYM    DATA     BIT       P55
      000000C0H.6 SFRSYM    DATA     BIT       P46
      000000B0H.7 SFRSYM    DATA     BIT       P37
      000000F8H.4 SFRSYM    DATA     BIT       P74
      000000E8H.5 SFRSYM    DATA     BIT       P65
      000000C8H.6 SFRSYM    DATA     BIT       P56
      000000C0H.7 SFRSYM    DATA     BIT       P47
      000000F8H.5 SFRSYM    DATA     BIT       P75
      000000E8H.6 SFRSYM    DATA     BIT       P66
      000000C8H.7 SFRSYM    DATA     BIT       P57
      000000F8H.6 SFRSYM    DATA     BIT       P76
      000000E8H.7 SFRSYM    DATA     BIT       P67
      000000F8H.7 SFRSYM    DATA     BIT       P77
      00000088H.1 SFRSYM    DATA     BIT       IE0
      00000088H.3 SFRSYM    DATA     BIT       IE1
      000000AFH   SFRSYM    DATA     BYTE      IE2
      000000F0H   SFRSYM    DATA     BYTE      B
      0000008EH   SFRSYM    DATA     BYTE      AUXR
      000000FCH   SFRSYM    DATA     BYTE      USBADR
      000000C7H   SFRSYM    DATA     BYTE      IAP_CONTR
      000000ECH   SFRSYM    DATA     BYTE      USBDAT
      000000DCH   SFRSYM    DATA     BYTE      USBCLK
      000000E0H   SFRSYM    DATA     BYTE      ACC
      000000A8H.1 SFRSYM    DATA     BIT       ET0
      000000A8H.3 SFRSYM    DATA     BIT       ET1
      00000088H.5 SFRSYM    DATA     BIT       TF0
      000000FFH   SFRSYM    DATA     BYTE      RSTCFG
      000000B5H   SFRSYM    DATA     BYTE      IP2
      00000088H.7 SFRSYM    DATA     BIT       TF1
      000000F4H   SFRSYM    DATA     BYTE      USBCON
      000000DFH   SFRSYM    DATA     BYTE      IP3
      00000098H.2 SFRSYM    DATA     BIT       RB8
      0000008CH   SFRSYM    DATA     BYTE      TH0
      000000A8H   SFRSYM    DATA     BIT       EX0
      0000008DH   SFRSYM    DATA     BYTE      TH1
      00000088H   SFRSYM    DATA     BIT       IT0
      000000D6H   SFRSYM    DATA     BYTE      T2H
      000000A8H.2 SFRSYM    DATA     BIT       EX1
      00000098H.3 SFRSYM    DATA     BIT       TB8
LX51 LINKER/LOCATER V4.41                                                             05/12/2022  17:30:48  PAGE 73


      00000088H.2 SFRSYM    DATA     BIT       IT1
      000000D4H   SFRSYM    DATA     BYTE      T3H
      000000D0H   SFRSYM    DATA     BIT       P
      000000D2H   SFRSYM    DATA     BYTE      T4H
      00000098H.7 SFRSYM    DATA     BIT       SM0
      0000008AH   SFRSYM    DATA     BYTE      TL0
      00000098H.6 SFRSYM    DATA     BIT       SM1
      0000008BH   SFRSYM    DATA     BYTE      TL1
      000000D7H   SFRSYM    DATA     BYTE      T2L
      00000098H.5 SFRSYM    DATA     BIT       SM2
      000000D5H   SFRSYM    DATA     BYTE      T3L
      000000D3H   SFRSYM    DATA     BYTE      T4L
      000000B8H.1 SFRSYM    DATA     BIT       PT0
      000000D0H.3 SFRSYM    DATA     BIT       RS0
      000000B8H.3 SFRSYM    DATA     BIT       PT1
      000000D0H.4 SFRSYM    DATA     BIT       RS1
      000000C2H   SFRSYM    DATA     BYTE      IAP_DATA
      00000088H.4 SFRSYM    DATA     BIT       TR0
      00000088H.6 SFRSYM    DATA     BIT       TR1
      000000C1H   SFRSYM    DATA     BYTE      WDT_CONTR
      000000B8H   SFRSYM    DATA     BIT       PX0
      000000B8H.2 SFRSYM    DATA     BIT       PX1
      0000009FH   SFRSYM    DATA     BYTE      IRTRIM
      00000083H   SFRSYM    DATA     BYTE      DPH
      000000D1H   SFRSYM    DATA     BYTE      T4T3M
      000000BEH   SFRSYM    DATA     BYTE      ADC_RESL
      00000082H   SFRSYM    DATA     BYTE      DPL
      000000CDH   SFRSYM    DATA     BYTE      SPSTAT
      000000B7H   SFRSYM    DATA     BYTE      IPH
      0000009BH   SFRSYM    DATA     BYTE      S2BUF
      000000ADH   SFRSYM    DATA     BYTE      S3BUF
      00000098H.4 SFRSYM    DATA     BIT       REN
      00000085H   SFRSYM    DATA     BYTE      S4BUF
      0000009AH   SFRSYM    DATA     BYTE      S2CON
      000000E3H   SFRSYM    DATA     BYTE      DPS
      000000ACH   SFRSYM    DATA     BYTE      S3CON
      00000084H   SFRSYM    DATA     BYTE      S4CON
      000000EFH   SFRSYM    DATA     BYTE      AUXINTIF
      000000B9H   SFRSYM    DATA     BYTE      SADEN
      000000A9H   SFRSYM    DATA     BYTE      SADDR
      000000C6H   SFRSYM    DATA     BYTE      IAP_TRIG
      000000D0H.5 SFRSYM    DATA     BIT       F0
      0000009DH   SFRSYM    DATA     BYTE      IRCBAND
      000000D0H   SFRSYM    DATA     BYTE      PSW
      000000CFH   SFRSYM    DATA     BYTE      SPDAT
      00000094H   SFRSYM    DATA     BYTE      P0M0
      00000007H   SYMBOL    DATA     BYTE      dat
      00000006H   SYMBOL    DATA     BYTE      i
      00000007H   SYMBOL    DATA     BYTE      dat
      00000006H   SYMBOL    DATA     BYTE      i
      00000006H   SYMBOL    DATA     BYTE      i
      00000006H   SYMBOL    DATA     WORD      dat
      00000005H   SYMBOL    DATA     BYTE      i
      00000002H   SYMBOL    DATA     WORD      x_end
      00000003H   SYMBOL    DATA     BYTE      i
      00000002H   SYMBOL    DATA     BYTE      j
      00000002H   SYMBOL    DATA     BYTE      j
      00000003H   SYMBOL    DATA     BYTE      temp
      00000002H   SYMBOL    DATA     BYTE      j
      00000003H   SYMBOL    DATA     BYTE      temp
      00000003H   SYMBOL    DATA     BYTE      dat
      00000002H   SYMBOL    DATA     WORD      dat
      00000005H   SYMBOL    DATA     CHAR      point
      00000007H   SYMBOL    DATA     BYTE      dat
      00000007H   SYMBOL    DATA     BYTE      dat
LX51 LINKER/LOCATER V4.41                                                             05/12/2022  17:30:48  PAGE 74


      00000004H   SYMBOL    DATA     WORD      dat
      00000003H   SYMBOL    DATA     BYTE      dat
      00000002H   SYMBOL    DATA     WORD      dat
      00000005H   SYMBOL    DATA     CHAR      point

      ---         MODULE    ---      ---       SEEKFREE_FONT
      00000093H   SFRSYM    DATA     BYTE      P0M1
      00000092H   SFRSYM    DATA     BYTE      P1M0
      00000096H   SFRSYM    DATA     BYTE      P2M0
      00000091H   SFRSYM    DATA     BYTE      P1M1
      00000080H   SFRSYM    DATA     BYTE      P0
      000000B2H   SFRSYM    DATA     BYTE      P3M0
      00000095H   SFRSYM    DATA     BYTE      P2M1
      00000090H   SFRSYM    DATA     BYTE      P1
      000000B4H   SFRSYM    DATA     BYTE      P4M0
      000000B1H   SFRSYM    DATA     BYTE      P3M1
      000000A0H   SFRSYM    DATA     BYTE      P2
      000000CAH   SFRSYM    DATA     BYTE      P5M0
      000000B3H   SFRSYM    DATA     BYTE      P4M1
      000000B0H   SFRSYM    DATA     BYTE      P3
      000000ABH   SFRSYM    DATA     BYTE      WKTCH
      000000D0H.6 SFRSYM    DATA     BIT       AC
      000000CCH   SFRSYM    DATA     BYTE      P6M0
      000000C9H   SFRSYM    DATA     BYTE      P5M1
      000000C0H   SFRSYM    DATA     BYTE      P4
      000000E2H   SFRSYM    DATA     BYTE      P7M0
      000000CBH   SFRSYM    DATA     BYTE      P6M1
      000000C8H   SFRSYM    DATA     BYTE      P5
      000000E8H   SFRSYM    DATA     BYTE      P6
      000000E1H   SFRSYM    DATA     BYTE      P7M1
      000000A8H.7 SFRSYM    DATA     BIT       EA
      000000F8H   SFRSYM    DATA     BYTE      P7
      000000AAH   SFRSYM    DATA     BYTE      WKTCL
      000000CEH   SFRSYM    DATA     BYTE      SPCTL
      000000A2H   SFRSYM    DATA     BYTE      P_SW1
      000000BAH   SFRSYM    DATA     BYTE      P_SW2
      000000E5H   SFRSYM    DATA     BYTE      DPH1
      000000A8H.5 SFRSYM    DATA     BIT       EADC
      000000A8H   SFRSYM    DATA     BYTE      IE
      000000C5H   SFRSYM    DATA     BYTE      IAP_CMD
      000000E4H   SFRSYM    DATA     BYTE      DPL1
      000000BDH   SFRSYM    DATA     BYTE      ADC_RES
      000000B6H   SFRSYM    DATA     BYTE      IP2H
      000000EEH   SFRSYM    DATA     BYTE      IP3H
      000000AEH   SFRSYM    DATA     BYTE      TA
      0000008FH   SFRSYM    DATA     BYTE      INTCLKO
      000000A8H.4 SFRSYM    DATA     BIT       ES
      000000B8H.5 SFRSYM    DATA     BIT       PADC
      000000B8H   SFRSYM    DATA     BYTE      IP
      000000DEH   SFRSYM    DATA     BYTE      ADCCFG
      00000098H   SFRSYM    DATA     BIT       RI
      000000D0H.7 SFRSYM    DATA     BIT       CY
      00000098H.1 SFRSYM    DATA     BIT       TI
      000000C3H   SFRSYM    DATA     BYTE      IAP_ADDRH
      000000B8H.4 SFRSYM    DATA     BIT       PS
      00000081H   SFRSYM    DATA     BYTE      SP
      000000C4H   SFRSYM    DATA     BYTE      IAP_ADDRL
      000000D0H.2 SFRSYM    DATA     BIT       OV
      000000B8H.7 SFRSYM    DATA     BIT       PPCA
      0000009EH   SFRSYM    DATA     BYTE      LIRTRIM
      000000E6H   SFRSYM    DATA     BYTE      CMPCR1
      000000E7H   SFRSYM    DATA     BYTE      CMPCR2
      000000A8H.6 SFRSYM    DATA     BIT       ELVD
      00000080H   SFRSYM    DATA     BIT       P00
      000000BCH   SFRSYM    DATA     BYTE      ADC_CONTR
LX51 LINKER/LOCATER V4.41                                                             05/12/2022  17:30:48  PAGE 75


      00000099H   SFRSYM    DATA     BYTE      SBUF
      00000090H   SFRSYM    DATA     BIT       P10
      00000087H   SFRSYM    DATA     BYTE      PCON
      00000080H.1 SFRSYM    DATA     BIT       P01
      000000A0H   SFRSYM    DATA     BIT       P20
      00000090H.1 SFRSYM    DATA     BIT       P11
      00000080H.2 SFRSYM    DATA     BIT       P02
      000000F5H   SFRSYM    DATA     BYTE      IAP_TPS
      000000B0H   SFRSYM    DATA     BIT       P30
      000000A0H.1 SFRSYM    DATA     BIT       P21
      00000090H.2 SFRSYM    DATA     BIT       P12
      00000080H.3 SFRSYM    DATA     BIT       P03
      000000C0H   SFRSYM    DATA     BIT       P40
      000000B0H.1 SFRSYM    DATA     BIT       P31
      000000A0H.2 SFRSYM    DATA     BIT       P22
      00000098H   SFRSYM    DATA     BYTE      SCON
      00000090H.3 SFRSYM    DATA     BIT       P13
      00000080H.4 SFRSYM    DATA     BIT       P04
      000000C8H   SFRSYM    DATA     BIT       P50
      000000C0H.1 SFRSYM    DATA     BIT       P41
      000000B0H.2 SFRSYM    DATA     BIT       P32
      000000A0H.3 SFRSYM    DATA     BIT       P23
      00000090H.4 SFRSYM    DATA     BIT       P14
      00000089H   SFRSYM    DATA     BYTE      TMOD
      00000088H   SFRSYM    DATA     BYTE      TCON
      00000080H.5 SFRSYM    DATA     BIT       P05
      000000E8H   SFRSYM    DATA     BIT       P60
      000000C8H.1 SFRSYM    DATA     BIT       P51
      000000C0H.2 SFRSYM    DATA     BIT       P42
      000000B0H.3 SFRSYM    DATA     BIT       P33
      000000A0H.4 SFRSYM    DATA     BIT       P24
      00000090H.5 SFRSYM    DATA     BIT       P15
      00000080H.6 SFRSYM    DATA     BIT       P06
      000000F8H   SFRSYM    DATA     BIT       P70
      000000E8H.1 SFRSYM    DATA     BIT       P61
      000000C8H.2 SFRSYM    DATA     BIT       P52
      000000C0H.3 SFRSYM    DATA     BIT       P43
      000000B8H.6 SFRSYM    DATA     BIT       PLVD
      000000B0H.4 SFRSYM    DATA     BIT       P34
      000000A0H.5 SFRSYM    DATA     BIT       P25
      00000090H.6 SFRSYM    DATA     BIT       P16
      00000080H.7 SFRSYM    DATA     BIT       P07
      000000F8H.1 SFRSYM    DATA     BIT       P71
      000000E8H.2 SFRSYM    DATA     BIT       P62
      000000C8H.3 SFRSYM    DATA     BIT       P53
      000000C0H.4 SFRSYM    DATA     BIT       P44
      000000B0H.5 SFRSYM    DATA     BIT       P35
      000000A0H.6 SFRSYM    DATA     BIT       P26
      00000090H.7 SFRSYM    DATA     BIT       P17
      000000F8H.2 SFRSYM    DATA     BIT       P72
      000000E8H.3 SFRSYM    DATA     BIT       P63
      000000C8H.4 SFRSYM    DATA     BIT       P54
      000000C0H.5 SFRSYM    DATA     BIT       P45
      000000B0H.6 SFRSYM    DATA     BIT       P36
      000000A0H.7 SFRSYM    DATA     BIT       P27
      000000F8H.3 SFRSYM    DATA     BIT       P73
      000000E8H.4 SFRSYM    DATA     BIT       P64
      000000C8H.5 SFRSYM    DATA     BIT       P55
      000000C0H.6 SFRSYM    DATA     BIT       P46
      000000B0H.7 SFRSYM    DATA     BIT       P37
      000000F8H.4 SFRSYM    DATA     BIT       P74
      000000E8H.5 SFRSYM    DATA     BIT       P65
      000000C8H.6 SFRSYM    DATA     BIT       P56
      000000C0H.7 SFRSYM    DATA     BIT       P47
      000000F8H.5 SFRSYM    DATA     BIT       P75
LX51 LINKER/LOCATER V4.41                                                             05/12/2022  17:30:48  PAGE 76


      000000E8H.6 SFRSYM    DATA     BIT       P66
      000000C8H.7 SFRSYM    DATA     BIT       P57
      000000F8H.6 SFRSYM    DATA     BIT       P76
      000000E8H.7 SFRSYM    DATA     BIT       P67
      000000F8H.7 SFRSYM    DATA     BIT       P77
      00000088H.1 SFRSYM    DATA     BIT       IE0
      00000088H.3 SFRSYM    DATA     BIT       IE1
      000000AFH   SFRSYM    DATA     BYTE      IE2
      000000F0H   SFRSYM    DATA     BYTE      B
      0000008EH   SFRSYM    DATA     BYTE      AUXR
      000000FCH   SFRSYM    DATA     BYTE      USBADR
      000000C7H   SFRSYM    DATA     BYTE      IAP_CONTR
      000000ECH   SFRSYM    DATA     BYTE      USBDAT
      000000DCH   SFRSYM    DATA     BYTE      USBCLK
      000000E0H   SFRSYM    DATA     BYTE      ACC
      000000A8H.1 SFRSYM    DATA     BIT       ET0
      000000A8H.3 SFRSYM    DATA     BIT       ET1
      00000088H.5 SFRSYM    DATA     BIT       TF0
      000000FFH   SFRSYM    DATA     BYTE      RSTCFG
      000000B5H   SFRSYM    DATA     BYTE      IP2
      00000088H.7 SFRSYM    DATA     BIT       TF1
      000000F4H   SFRSYM    DATA     BYTE      USBCON
      000000DFH   SFRSYM    DATA     BYTE      IP3
      00000098H.2 SFRSYM    DATA     BIT       RB8
      0000008CH   SFRSYM    DATA     BYTE      TH0
      000000A8H   SFRSYM    DATA     BIT       EX0
      0000008DH   SFRSYM    DATA     BYTE      TH1
      00000088H   SFRSYM    DATA     BIT       IT0
      000000D6H   SFRSYM    DATA     BYTE      T2H
      000000A8H.2 SFRSYM    DATA     BIT       EX1
      00000098H.3 SFRSYM    DATA     BIT       TB8
      00000088H.2 SFRSYM    DATA     BIT       IT1
      000000D4H   SFRSYM    DATA     BYTE      T3H
      000000D0H   SFRSYM    DATA     BIT       P
      000000D2H   SFRSYM    DATA     BYTE      T4H
      00000098H.7 SFRSYM    DATA     BIT       SM0
      0000008AH   SFRSYM    DATA     BYTE      TL0
      00000098H.6 SFRSYM    DATA     BIT       SM1
      0000008BH   SFRSYM    DATA     BYTE      TL1
      000000D7H   SFRSYM    DATA     BYTE      T2L
      00000098H.5 SFRSYM    DATA     BIT       SM2
      000000D5H   SFRSYM    DATA     BYTE      T3L
      000000D3H   SFRSYM    DATA     BYTE      T4L
      000000B8H.1 SFRSYM    DATA     BIT       PT0
      000000D0H.3 SFRSYM    DATA     BIT       RS0
      000000B8H.3 SFRSYM    DATA     BIT       PT1
      000000D0H.4 SFRSYM    DATA     BIT       RS1
      000000C2H   SFRSYM    DATA     BYTE      IAP_DATA
      00000088H.4 SFRSYM    DATA     BIT       TR0
      00000088H.6 SFRSYM    DATA     BIT       TR1
      000000C1H   SFRSYM    DATA     BYTE      WDT_CONTR
      000000B8H   SFRSYM    DATA     BIT       PX0
      000000B8H.2 SFRSYM    DATA     BIT       PX1
      0000009FH   SFRSYM    DATA     BYTE      IRTRIM
      00000083H   SFRSYM    DATA     BYTE      DPH
      000000D1H   SFRSYM    DATA     BYTE      T4T3M
      000000BEH   SFRSYM    DATA     BYTE      ADC_RESL
      00000082H   SFRSYM    DATA     BYTE      DPL
      000000CDH   SFRSYM    DATA     BYTE      SPSTAT
      000000B7H   SFRSYM    DATA     BYTE      IPH
      0000009BH   SFRSYM    DATA     BYTE      S2BUF
      000000ADH   SFRSYM    DATA     BYTE      S3BUF
      00000098H.4 SFRSYM    DATA     BIT       REN
      00000085H   SFRSYM    DATA     BYTE      S4BUF
      0000009AH   SFRSYM    DATA     BYTE      S2CON
LX51 LINKER/LOCATER V4.41                                                             05/12/2022  17:30:48  PAGE 77


      000000E3H   SFRSYM    DATA     BYTE      DPS
      000000ACH   SFRSYM    DATA     BYTE      S3CON
      00000084H   SFRSYM    DATA     BYTE      S4CON
      000000EFH   SFRSYM    DATA     BYTE      AUXINTIF
      000000B9H   SFRSYM    DATA     BYTE      SADEN
      000000A9H   SFRSYM    DATA     BYTE      SADDR
      000000C6H   SFRSYM    DATA     BYTE      IAP_TRIG
      000000D0H.5 SFRSYM    DATA     BIT       F0
      0000009DH   SFRSYM    DATA     BYTE      IRCBAND
      000000D0H   SFRSYM    DATA     BYTE      PSW
      000000CFH   SFRSYM    DATA     BYTE      SPDAT
      00000094H   SFRSYM    DATA     BYTE      P0M0

      ---         MODULE    ---      ---       SEEKFREE_ICM20602
      0200020DH   PUBLIC    XDATA    INT       icm_gyro_z
      0200020BH   PUBLIC    XDATA    INT       icm_gyro_y
      02000209H   PUBLIC    XDATA    INT       icm_gyro_x
      02000207H   PUBLIC    XDATA    INT       icm_acc_z
      02000205H   PUBLIC    XDATA    INT       icm_acc_y
      02000203H   PUBLIC    XDATA    INT       icm_acc_x
      00000093H   SFRSYM    DATA     BYTE      P0M1
      00000092H   SFRSYM    DATA     BYTE      P1M0
      00000096H   SFRSYM    DATA     BYTE      P2M0
      00000091H   SFRSYM    DATA     BYTE      P1M1
      00000080H   SFRSYM    DATA     BYTE      P0
      000000B2H   SFRSYM    DATA     BYTE      P3M0
      00000095H   SFRSYM    DATA     BYTE      P2M1
      00000090H   SFRSYM    DATA     BYTE      P1
      000000B4H   SFRSYM    DATA     BYTE      P4M0
      000000B1H   SFRSYM    DATA     BYTE      P3M1
      000000A0H   SFRSYM    DATA     BYTE      P2
      000000CAH   SFRSYM    DATA     BYTE      P5M0
      000000B3H   SFRSYM    DATA     BYTE      P4M1
      000000B0H   SFRSYM    DATA     BYTE      P3
      000000ABH   SFRSYM    DATA     BYTE      WKTCH
      000000D0H.6 SFRSYM    DATA     BIT       AC
      000000CCH   SFRSYM    DATA     BYTE      P6M0
      000000C9H   SFRSYM    DATA     BYTE      P5M1
      000000C0H   SFRSYM    DATA     BYTE      P4
      000000E2H   SFRSYM    DATA     BYTE      P7M0
      000000CBH   SFRSYM    DATA     BYTE      P6M1
      000000C8H   SFRSYM    DATA     BYTE      P5
      000000E8H   SFRSYM    DATA     BYTE      P6
      000000E1H   SFRSYM    DATA     BYTE      P7M1
      000000A8H.7 SFRSYM    DATA     BIT       EA
      000000F8H   SFRSYM    DATA     BYTE      P7
      000000AAH   SFRSYM    DATA     BYTE      WKTCL
      000000CEH   SFRSYM    DATA     BYTE      SPCTL
      000000A2H   SFRSYM    DATA     BYTE      P_SW1
      000000BAH   SFRSYM    DATA     BYTE      P_SW2
      000000E5H   SFRSYM    DATA     BYTE      DPH1
      000000A8H.5 SFRSYM    DATA     BIT       EADC
      000000A8H   SFRSYM    DATA     BYTE      IE
      000000C5H   SFRSYM    DATA     BYTE      IAP_CMD
      000000E4H   SFRSYM    DATA     BYTE      DPL1
      000000BDH   SFRSYM    DATA     BYTE      ADC_RES
      000000B6H   SFRSYM    DATA     BYTE      IP2H
      000000EEH   SFRSYM    DATA     BYTE      IP3H
      000000AEH   SFRSYM    DATA     BYTE      TA
      0000008FH   SFRSYM    DATA     BYTE      INTCLKO
      000000A8H.4 SFRSYM    DATA     BIT       ES
      000000B8H.5 SFRSYM    DATA     BIT       PADC
      000000B8H   SFRSYM    DATA     BYTE      IP
      000000DEH   SFRSYM    DATA     BYTE      ADCCFG
      00000098H   SFRSYM    DATA     BIT       RI
LX51 LINKER/LOCATER V4.41                                                             05/12/2022  17:30:48  PAGE 78


      000000D0H.7 SFRSYM    DATA     BIT       CY
      00000098H.1 SFRSYM    DATA     BIT       TI
      000000C3H   SFRSYM    DATA     BYTE      IAP_ADDRH
      000000B8H.4 SFRSYM    DATA     BIT       PS
      00000081H   SFRSYM    DATA     BYTE      SP
      000000C4H   SFRSYM    DATA     BYTE      IAP_ADDRL
      000000D0H.2 SFRSYM    DATA     BIT       OV
      000000B8H.7 SFRSYM    DATA     BIT       PPCA
      0000009EH   SFRSYM    DATA     BYTE      LIRTRIM
      000000E6H   SFRSYM    DATA     BYTE      CMPCR1
      000000E7H   SFRSYM    DATA     BYTE      CMPCR2
      000000A8H.6 SFRSYM    DATA     BIT       ELVD
      00000080H   SFRSYM    DATA     BIT       P00
      000000BCH   SFRSYM    DATA     BYTE      ADC_CONTR
      00000099H   SFRSYM    DATA     BYTE      SBUF
      00000090H   SFRSYM    DATA     BIT       P10
      00000087H   SFRSYM    DATA     BYTE      PCON
      00000080H.1 SFRSYM    DATA     BIT       P01
      000000A0H   SFRSYM    DATA     BIT       P20
      00000090H.1 SFRSYM    DATA     BIT       P11
      00000080H.2 SFRSYM    DATA     BIT       P02
      000000F5H   SFRSYM    DATA     BYTE      IAP_TPS
      000000B0H   SFRSYM    DATA     BIT       P30
      000000A0H.1 SFRSYM    DATA     BIT       P21
      00000090H.2 SFRSYM    DATA     BIT       P12
      00000080H.3 SFRSYM    DATA     BIT       P03
      000000C0H   SFRSYM    DATA     BIT       P40
      000000B0H.1 SFRSYM    DATA     BIT       P31
      000000A0H.2 SFRSYM    DATA     BIT       P22
      00000098H   SFRSYM    DATA     BYTE      SCON
      00000090H.3 SFRSYM    DATA     BIT       P13
      00000080H.4 SFRSYM    DATA     BIT       P04
      000000C8H   SFRSYM    DATA     BIT       P50
      000000C0H.1 SFRSYM    DATA     BIT       P41
      000000B0H.2 SFRSYM    DATA     BIT       P32
      000000A0H.3 SFRSYM    DATA     BIT       P23
      00000090H.4 SFRSYM    DATA     BIT       P14
      00000089H   SFRSYM    DATA     BYTE      TMOD
      00000088H   SFRSYM    DATA     BYTE      TCON
      00000080H.5 SFRSYM    DATA     BIT       P05
      000000E8H   SFRSYM    DATA     BIT       P60
      000000C8H.1 SFRSYM    DATA     BIT       P51
      000000C0H.2 SFRSYM    DATA     BIT       P42
      000000B0H.3 SFRSYM    DATA     BIT       P33
      000000A0H.4 SFRSYM    DATA     BIT       P24
      00000090H.5 SFRSYM    DATA     BIT       P15
      00000080H.6 SFRSYM    DATA     BIT       P06
      000000F8H   SFRSYM    DATA     BIT       P70
      000000E8H.1 SFRSYM    DATA     BIT       P61
      000000C8H.2 SFRSYM    DATA     BIT       P52
      000000C0H.3 SFRSYM    DATA     BIT       P43
      000000B8H.6 SFRSYM    DATA     BIT       PLVD
      000000B0H.4 SFRSYM    DATA     BIT       P34
      000000A0H.5 SFRSYM    DATA     BIT       P25
      00000090H.6 SFRSYM    DATA     BIT       P16
      00000080H.7 SFRSYM    DATA     BIT       P07
      000000F8H.1 SFRSYM    DATA     BIT       P71
      000000E8H.2 SFRSYM    DATA     BIT       P62
      000000C8H.3 SFRSYM    DATA     BIT       P53
      000000C0H.4 SFRSYM    DATA     BIT       P44
      000000B0H.5 SFRSYM    DATA     BIT       P35
      000000A0H.6 SFRSYM    DATA     BIT       P26
      00000090H.7 SFRSYM    DATA     BIT       P17
      000000F8H.2 SFRSYM    DATA     BIT       P72
      000000E8H.3 SFRSYM    DATA     BIT       P63
LX51 LINKER/LOCATER V4.41                                                             05/12/2022  17:30:48  PAGE 79


      000000C8H.4 SFRSYM    DATA     BIT       P54
      000000C0H.5 SFRSYM    DATA     BIT       P45
      000000B0H.6 SFRSYM    DATA     BIT       P36
      000000A0H.7 SFRSYM    DATA     BIT       P27
      000000F8H.3 SFRSYM    DATA     BIT       P73
      000000E8H.4 SFRSYM    DATA     BIT       P64
      000000C8H.5 SFRSYM    DATA     BIT       P55
      000000C0H.6 SFRSYM    DATA     BIT       P46
      000000B0H.7 SFRSYM    DATA     BIT       P37
      000000F8H.4 SFRSYM    DATA     BIT       P74
      000000E8H.5 SFRSYM    DATA     BIT       P65
      000000C8H.6 SFRSYM    DATA     BIT       P56
      000000C0H.7 SFRSYM    DATA     BIT       P47
      000000F8H.5 SFRSYM    DATA     BIT       P75
      000000E8H.6 SFRSYM    DATA     BIT       P66
      000000C8H.7 SFRSYM    DATA     BIT       P57
      000000F8H.6 SFRSYM    DATA     BIT       P76
      000000E8H.7 SFRSYM    DATA     BIT       P67
      000000F8H.7 SFRSYM    DATA     BIT       P77
      00000088H.1 SFRSYM    DATA     BIT       IE0
      00000088H.3 SFRSYM    DATA     BIT       IE1
      000000AFH   SFRSYM    DATA     BYTE      IE2
      000000F0H   SFRSYM    DATA     BYTE      B
      0000008EH   SFRSYM    DATA     BYTE      AUXR
      000000FCH   SFRSYM    DATA     BYTE      USBADR
      000000C7H   SFRSYM    DATA     BYTE      IAP_CONTR
      000000ECH   SFRSYM    DATA     BYTE      USBDAT
      000000DCH   SFRSYM    DATA     BYTE      USBCLK
      000000E0H   SFRSYM    DATA     BYTE      ACC
      000000A8H.1 SFRSYM    DATA     BIT       ET0
      000000A8H.3 SFRSYM    DATA     BIT       ET1
      00000088H.5 SFRSYM    DATA     BIT       TF0
      000000FFH   SFRSYM    DATA     BYTE      RSTCFG
      000000B5H   SFRSYM    DATA     BYTE      IP2
      00000088H.7 SFRSYM    DATA     BIT       TF1
      000000F4H   SFRSYM    DATA     BYTE      USBCON
      000000DFH   SFRSYM    DATA     BYTE      IP3
      00000098H.2 SFRSYM    DATA     BIT       RB8
      0000008CH   SFRSYM    DATA     BYTE      TH0
      000000A8H   SFRSYM    DATA     BIT       EX0
      0000008DH   SFRSYM    DATA     BYTE      TH1
      00000088H   SFRSYM    DATA     BIT       IT0
      000000D6H   SFRSYM    DATA     BYTE      T2H
      000000A8H.2 SFRSYM    DATA     BIT       EX1
      00000098H.3 SFRSYM    DATA     BIT       TB8
      00000088H.2 SFRSYM    DATA     BIT       IT1
      000000D4H   SFRSYM    DATA     BYTE      T3H
      000000D0H   SFRSYM    DATA     BIT       P
      000000D2H   SFRSYM    DATA     BYTE      T4H
      00000098H.7 SFRSYM    DATA     BIT       SM0
      0000008AH   SFRSYM    DATA     BYTE      TL0
      00000098H.6 SFRSYM    DATA     BIT       SM1
      0000008BH   SFRSYM    DATA     BYTE      TL1
      000000D7H   SFRSYM    DATA     BYTE      T2L
      00000098H.5 SFRSYM    DATA     BIT       SM2
      000000D5H   SFRSYM    DATA     BYTE      T3L
      000000D3H   SFRSYM    DATA     BYTE      T4L
      000000B8H.1 SFRSYM    DATA     BIT       PT0
      000000D0H.3 SFRSYM    DATA     BIT       RS0
      000000B8H.3 SFRSYM    DATA     BIT       PT1
      000000D0H.4 SFRSYM    DATA     BIT       RS1
      000000C2H   SFRSYM    DATA     BYTE      IAP_DATA
      00000088H.4 SFRSYM    DATA     BIT       TR0
      00000088H.6 SFRSYM    DATA     BIT       TR1
      000000C1H   SFRSYM    DATA     BYTE      WDT_CONTR
LX51 LINKER/LOCATER V4.41                                                             05/12/2022  17:30:48  PAGE 80


      000000B8H   SFRSYM    DATA     BIT       PX0
      000000B8H.2 SFRSYM    DATA     BIT       PX1
      0000009FH   SFRSYM    DATA     BYTE      IRTRIM
      00000083H   SFRSYM    DATA     BYTE      DPH
      000000D1H   SFRSYM    DATA     BYTE      T4T3M
      000000BEH   SFRSYM    DATA     BYTE      ADC_RESL
      00000082H   SFRSYM    DATA     BYTE      DPL
      000000CDH   SFRSYM    DATA     BYTE      SPSTAT
      000000B7H   SFRSYM    DATA     BYTE      IPH
      0000009BH   SFRSYM    DATA     BYTE      S2BUF
      000000ADH   SFRSYM    DATA     BYTE      S3BUF
      00000098H.4 SFRSYM    DATA     BIT       REN
      00000085H   SFRSYM    DATA     BYTE      S4BUF
      0000009AH   SFRSYM    DATA     BYTE      S2CON
      000000E3H   SFRSYM    DATA     BYTE      DPS
      000000ACH   SFRSYM    DATA     BYTE      S3CON
      00000084H   SFRSYM    DATA     BYTE      S4CON
      000000EFH   SFRSYM    DATA     BYTE      AUXINTIF
      000000B9H   SFRSYM    DATA     BYTE      SADEN
      000000A9H   SFRSYM    DATA     BYTE      SADDR
      000000C6H   SFRSYM    DATA     BYTE      IAP_TRIG
      000000D0H.5 SFRSYM    DATA     BIT       F0
      0000009DH   SFRSYM    DATA     BYTE      IRCBAND
      000000D0H   SFRSYM    DATA     BYTE      PSW
      000000CFH   SFRSYM    DATA     BYTE      SPDAT
      00000094H   SFRSYM    DATA     BYTE      P0M0
      00000007H   SYMBOL    DATA     BYTE      byte
      00000006H   SYMBOL    DATA     BYTE      i
      00000006H   SYMBOL    DATA     BYTE      i
      00000007H   SYMBOL    DATA     BYTE      cmd
      00000005H   SYMBOL    DATA     BYTE      val
      00000007H   SYMBOL    DATA     BYTE      cmd
      00000001H   SYMBOL    DATA     ---       val
      00000007H   SYMBOL    DATA     BYTE      cmd
      00000004H   SYMBOL    DATA     WORD      i
      00000007H   SYMBOL    DATA     BYTE      byte
      00000007H   SYMBOL    DATA     BYTE      cmd
      00000007H   SYMBOL    DATA     BYTE      cmd
      00000007H   SYMBOL    DATA     BYTE      cmd

      ---         MODULE    ---      ---       SEEKFREE_IIC
      02000231H   PUBLIC    XDATA    ---       IIC_buf
      02000230H   PUBLIC    XDATA    BYTE      IIC_ad_sub
      0200022FH   PUBLIC    XDATA    BYTE      IIC_num
      0200022EH   PUBLIC    XDATA    BYTE      IIC_ad_main
      00000093H   SFRSYM    DATA     BYTE      P0M1
      00000092H   SFRSYM    DATA     BYTE      P1M0
      00000096H   SFRSYM    DATA     BYTE      P2M0
      00000091H   SFRSYM    DATA     BYTE      P1M1
      00000080H   SFRSYM    DATA     BYTE      P0
      000000B2H   SFRSYM    DATA     BYTE      P3M0
      00000095H   SFRSYM    DATA     BYTE      P2M1
      00000090H   SFRSYM    DATA     BYTE      P1
      000000B4H   SFRSYM    DATA     BYTE      P4M0
      000000B1H   SFRSYM    DATA     BYTE      P3M1
      000000A0H   SFRSYM    DATA     BYTE      P2
      000000CAH   SFRSYM    DATA     BYTE      P5M0
      000000B3H   SFRSYM    DATA     BYTE      P4M1
      000000B0H   SFRSYM    DATA     BYTE      P3
      000000ABH   SFRSYM    DATA     BYTE      WKTCH
      000000D0H.6 SFRSYM    DATA     BIT       AC
      000000CCH   SFRSYM    DATA     BYTE      P6M0
      000000C9H   SFRSYM    DATA     BYTE      P5M1
      000000C0H   SFRSYM    DATA     BYTE      P4
      000000E2H   SFRSYM    DATA     BYTE      P7M0
LX51 LINKER/LOCATER V4.41                                                             05/12/2022  17:30:48  PAGE 81


      000000CBH   SFRSYM    DATA     BYTE      P6M1
      000000C8H   SFRSYM    DATA     BYTE      P5
      000000E8H   SFRSYM    DATA     BYTE      P6
      000000E1H   SFRSYM    DATA     BYTE      P7M1
      000000A8H.7 SFRSYM    DATA     BIT       EA
      000000F8H   SFRSYM    DATA     BYTE      P7
      000000AAH   SFRSYM    DATA     BYTE      WKTCL
      000000CEH   SFRSYM    DATA     BYTE      SPCTL
      000000A2H   SFRSYM    DATA     BYTE      P_SW1
      000000BAH   SFRSYM    DATA     BYTE      P_SW2
      000000E5H   SFRSYM    DATA     BYTE      DPH1
      000000A8H.5 SFRSYM    DATA     BIT       EADC
      000000A8H   SFRSYM    DATA     BYTE      IE
      000000C5H   SFRSYM    DATA     BYTE      IAP_CMD
      000000E4H   SFRSYM    DATA     BYTE      DPL1
      000000BDH   SFRSYM    DATA     BYTE      ADC_RES
      000000B6H   SFRSYM    DATA     BYTE      IP2H
      000000EEH   SFRSYM    DATA     BYTE      IP3H
      000000AEH   SFRSYM    DATA     BYTE      TA
      0000008FH   SFRSYM    DATA     BYTE      INTCLKO
      000000A8H.4 SFRSYM    DATA     BIT       ES
      000000B8H.5 SFRSYM    DATA     BIT       PADC
      000000B8H   SFRSYM    DATA     BYTE      IP
      000000DEH   SFRSYM    DATA     BYTE      ADCCFG
      00000098H   SFRSYM    DATA     BIT       RI
      000000D0H.7 SFRSYM    DATA     BIT       CY
      00000098H.1 SFRSYM    DATA     BIT       TI
      000000C3H   SFRSYM    DATA     BYTE      IAP_ADDRH
      000000B8H.4 SFRSYM    DATA     BIT       PS
      00000081H   SFRSYM    DATA     BYTE      SP
      000000C4H   SFRSYM    DATA     BYTE      IAP_ADDRL
      000000D0H.2 SFRSYM    DATA     BIT       OV
      000000B8H.7 SFRSYM    DATA     BIT       PPCA
      0000009EH   SFRSYM    DATA     BYTE      LIRTRIM
      000000E6H   SFRSYM    DATA     BYTE      CMPCR1
      000000E7H   SFRSYM    DATA     BYTE      CMPCR2
      000000A8H.6 SFRSYM    DATA     BIT       ELVD
      00000080H   SFRSYM    DATA     BIT       P00
      000000BCH   SFRSYM    DATA     BYTE      ADC_CONTR
      00000099H   SFRSYM    DATA     BYTE      SBUF
      00000090H   SFRSYM    DATA     BIT       P10
      00000087H   SFRSYM    DATA     BYTE      PCON
      00000080H.1 SFRSYM    DATA     BIT       P01
      000000A0H   SFRSYM    DATA     BIT       P20
      00000090H.1 SFRSYM    DATA     BIT       P11
      00000080H.2 SFRSYM    DATA     BIT       P02
      000000F5H   SFRSYM    DATA     BYTE      IAP_TPS
      000000B0H   SFRSYM    DATA     BIT       P30
      000000A0H.1 SFRSYM    DATA     BIT       P21
      00000090H.2 SFRSYM    DATA     BIT       P12
      00000080H.3 SFRSYM    DATA     BIT       P03
      000000C0H   SFRSYM    DATA     BIT       P40
      000000B0H.1 SFRSYM    DATA     BIT       P31
      000000A0H.2 SFRSYM    DATA     BIT       P22
      00000098H   SFRSYM    DATA     BYTE      SCON
      00000090H.3 SFRSYM    DATA     BIT       P13
      00000080H.4 SFRSYM    DATA     BIT       P04
      000000C8H   SFRSYM    DATA     BIT       P50
      000000C0H.1 SFRSYM    DATA     BIT       P41
      000000B0H.2 SFRSYM    DATA     BIT       P32
      000000A0H.3 SFRSYM    DATA     BIT       P23
      00000090H.4 SFRSYM    DATA     BIT       P14
      00000089H   SFRSYM    DATA     BYTE      TMOD
      00000088H   SFRSYM    DATA     BYTE      TCON
      00000080H.5 SFRSYM    DATA     BIT       P05
LX51 LINKER/LOCATER V4.41                                                             05/12/2022  17:30:48  PAGE 82


      000000E8H   SFRSYM    DATA     BIT       P60
      000000C8H.1 SFRSYM    DATA     BIT       P51
      000000C0H.2 SFRSYM    DATA     BIT       P42
      000000B0H.3 SFRSYM    DATA     BIT       P33
      000000A0H.4 SFRSYM    DATA     BIT       P24
      00000090H.5 SFRSYM    DATA     BIT       P15
      00000080H.6 SFRSYM    DATA     BIT       P06
      000000F8H   SFRSYM    DATA     BIT       P70
      000000E8H.1 SFRSYM    DATA     BIT       P61
      000000C8H.2 SFRSYM    DATA     BIT       P52
      000000C0H.3 SFRSYM    DATA     BIT       P43
      000000B8H.6 SFRSYM    DATA     BIT       PLVD
      000000B0H.4 SFRSYM    DATA     BIT       P34
      000000A0H.5 SFRSYM    DATA     BIT       P25
      00000090H.6 SFRSYM    DATA     BIT       P16
      00000080H.7 SFRSYM    DATA     BIT       P07
      000000F8H.1 SFRSYM    DATA     BIT       P71
      000000E8H.2 SFRSYM    DATA     BIT       P62
      000000C8H.3 SFRSYM    DATA     BIT       P53
      000000C0H.4 SFRSYM    DATA     BIT       P44
      000000B0H.5 SFRSYM    DATA     BIT       P35
      000000A0H.6 SFRSYM    DATA     BIT       P26
      00000090H.7 SFRSYM    DATA     BIT       P17
      000000F8H.2 SFRSYM    DATA     BIT       P72
      000000E8H.3 SFRSYM    DATA     BIT       P63
      000000C8H.4 SFRSYM    DATA     BIT       P54
      000000C0H.5 SFRSYM    DATA     BIT       P45
      000000B0H.6 SFRSYM    DATA     BIT       P36
      000000A0H.7 SFRSYM    DATA     BIT       P27
      000000F8H.3 SFRSYM    DATA     BIT       P73
      000000E8H.4 SFRSYM    DATA     BIT       P64
      000000C8H.5 SFRSYM    DATA     BIT       P55
      000000C0H.6 SFRSYM    DATA     BIT       P46
      000000B0H.7 SFRSYM    DATA     BIT       P37
      000000F8H.4 SFRSYM    DATA     BIT       P74
      000000E8H.5 SFRSYM    DATA     BIT       P65
      000000C8H.6 SFRSYM    DATA     BIT       P56
      000000C0H.7 SFRSYM    DATA     BIT       P47
      000000F8H.5 SFRSYM    DATA     BIT       P75
      000000E8H.6 SFRSYM    DATA     BIT       P66
      000000C8H.7 SFRSYM    DATA     BIT       P57
      000000F8H.6 SFRSYM    DATA     BIT       P76
      000000E8H.7 SFRSYM    DATA     BIT       P67
      000000F8H.7 SFRSYM    DATA     BIT       P77
      00000088H.1 SFRSYM    DATA     BIT       IE0
      00000088H.3 SFRSYM    DATA     BIT       IE1
      000000AFH   SFRSYM    DATA     BYTE      IE2
      000000F0H   SFRSYM    DATA     BYTE      B
      0000008EH   SFRSYM    DATA     BYTE      AUXR
      000000FCH   SFRSYM    DATA     BYTE      USBADR
      000000C7H   SFRSYM    DATA     BYTE      IAP_CONTR
      000000ECH   SFRSYM    DATA     BYTE      USBDAT
      000000DCH   SFRSYM    DATA     BYTE      USBCLK
      000000E0H   SFRSYM    DATA     BYTE      ACC
      000000A8H.1 SFRSYM    DATA     BIT       ET0
      000000A8H.3 SFRSYM    DATA     BIT       ET1
      00000088H.5 SFRSYM    DATA     BIT       TF0
      000000FFH   SFRSYM    DATA     BYTE      RSTCFG
      000000B5H   SFRSYM    DATA     BYTE      IP2
      00000088H.7 SFRSYM    DATA     BIT       TF1
      000000F4H   SFRSYM    DATA     BYTE      USBCON
      000000DFH   SFRSYM    DATA     BYTE      IP3
      00000098H.2 SFRSYM    DATA     BIT       RB8
      0000008CH   SFRSYM    DATA     BYTE      TH0
      000000A8H   SFRSYM    DATA     BIT       EX0
LX51 LINKER/LOCATER V4.41                                                             05/12/2022  17:30:48  PAGE 83


      0000008DH   SFRSYM    DATA     BYTE      TH1
      00000088H   SFRSYM    DATA     BIT       IT0
      000000D6H   SFRSYM    DATA     BYTE      T2H
      000000A8H.2 SFRSYM    DATA     BIT       EX1
      00000098H.3 SFRSYM    DATA     BIT       TB8
      00000088H.2 SFRSYM    DATA     BIT       IT1
      000000D4H   SFRSYM    DATA     BYTE      T3H
      000000D0H   SFRSYM    DATA     BIT       P
      000000D2H   SFRSYM    DATA     BYTE      T4H
      00000098H.7 SFRSYM    DATA     BIT       SM0
      0000008AH   SFRSYM    DATA     BYTE      TL0
      00000098H.6 SFRSYM    DATA     BIT       SM1
      0000008BH   SFRSYM    DATA     BYTE      TL1
      000000D7H   SFRSYM    DATA     BYTE      T2L
      00000098H.5 SFRSYM    DATA     BIT       SM2
      000000D5H   SFRSYM    DATA     BYTE      T3L
      000000D3H   SFRSYM    DATA     BYTE      T4L
      000000B8H.1 SFRSYM    DATA     BIT       PT0
      000000D0H.3 SFRSYM    DATA     BIT       RS0
      000000B8H.3 SFRSYM    DATA     BIT       PT1
      000000D0H.4 SFRSYM    DATA     BIT       RS1
      000000C2H   SFRSYM    DATA     BYTE      IAP_DATA
      00000088H.4 SFRSYM    DATA     BIT       TR0
      00000088H.6 SFRSYM    DATA     BIT       TR1
      000000C1H   SFRSYM    DATA     BYTE      WDT_CONTR
      000000B8H   SFRSYM    DATA     BIT       PX0
      000000B8H.2 SFRSYM    DATA     BIT       PX1
      0000009FH   SFRSYM    DATA     BYTE      IRTRIM
      00000083H   SFRSYM    DATA     BYTE      DPH
      000000D1H   SFRSYM    DATA     BYTE      T4T3M
      000000BEH   SFRSYM    DATA     BYTE      ADC_RESL
      00000082H   SFRSYM    DATA     BYTE      DPL
      000000CDH   SFRSYM    DATA     BYTE      SPSTAT
      000000B7H   SFRSYM    DATA     BYTE      IPH
      0000009BH   SFRSYM    DATA     BYTE      S2BUF
      000000ADH   SFRSYM    DATA     BYTE      S3BUF
      00000098H.4 SFRSYM    DATA     BIT       REN
      00000085H   SFRSYM    DATA     BYTE      S4BUF
      0000009AH   SFRSYM    DATA     BYTE      S2CON
      000000E3H   SFRSYM    DATA     BYTE      DPS
      000000ACH   SFRSYM    DATA     BYTE      S3CON
      00000084H   SFRSYM    DATA     BYTE      S4CON
      000000EFH   SFRSYM    DATA     BYTE      AUXINTIF
      000000B9H   SFRSYM    DATA     BYTE      SADEN
      000000A9H   SFRSYM    DATA     BYTE      SADDR
      000000C6H   SFRSYM    DATA     BYTE      IAP_TRIG
      000000D0H.5 SFRSYM    DATA     BIT       F0
      0000009DH   SFRSYM    DATA     BYTE      IRCBAND
      000000D0H   SFRSYM    DATA     BYTE      PSW
      000000CFH   SFRSYM    DATA     BYTE      SPDAT
      00000094H   SFRSYM    DATA     BYTE      P0M0
      00000006H   SYMBOL    DATA     WORD      j
      00000006H   SYMBOL    DATA     WORD      j
      00000005H   SYMBOL    DATA     BYTE      ack_dat
      00000005H   SYMBOL    DATA     BYTE      c
      00000003H   SYMBOL    DATA     BYTE      i
      00000003H   SYMBOL    DATA     BYTE      i
      00000005H   SYMBOL    DATA     BYTE      ack_x
      00000002H   SYMBOL    DATA     BYTE      i
      00000003H   SYMBOL    DATA     BYTE      c
      00000001H   SYMBOL    DATA     BYTE      reg
      00000002H   SYMBOL    DATA     BYTE      dat
      00000002H   SYMBOL    DATA     BYTE      dev_add
      00000001H   SYMBOL    DATA     BYTE      type
      00000005H   SYMBOL    DATA     BYTE      dat
LX51 LINKER/LOCATER V4.41                                                             05/12/2022  17:30:48  PAGE 84



      ---         MODULE    ---      ---       SEEKFREE_TSL1401
      02000001H   PUBLIC    XDATA    ---       ccd_data
      02000000H   PUBLIC    XDATA    BYTE      tsl1401_finish_flag
      01001652H   PUBLIC    CODE     ---       ccd_collect
      00000093H   SFRSYM    DATA     BYTE      P0M1
      00000092H   SFRSYM    DATA     BYTE      P1M0
      00000096H   SFRSYM    DATA     BYTE      P2M0
      00000091H   SFRSYM    DATA     BYTE      P1M1
      00000080H   SFRSYM    DATA     BYTE      P0
      000000B2H   SFRSYM    DATA     BYTE      P3M0
      00000095H   SFRSYM    DATA     BYTE      P2M1
      00000090H   SFRSYM    DATA     BYTE      P1
      000000B4H   SFRSYM    DATA     BYTE      P4M0
      000000B1H   SFRSYM    DATA     BYTE      P3M1
      000000A0H   SFRSYM    DATA     BYTE      P2
      000000CAH   SFRSYM    DATA     BYTE      P5M0
      000000B3H   SFRSYM    DATA     BYTE      P4M1
      000000B0H   SFRSYM    DATA     BYTE      P3
      000000ABH   SFRSYM    DATA     BYTE      WKTCH
      000000D0H.6 SFRSYM    DATA     BIT       AC
      000000CCH   SFRSYM    DATA     BYTE      P6M0
      000000C9H   SFRSYM    DATA     BYTE      P5M1
      000000C0H   SFRSYM    DATA     BYTE      P4
      000000E2H   SFRSYM    DATA     BYTE      P7M0
      000000CBH   SFRSYM    DATA     BYTE      P6M1
      000000C8H   SFRSYM    DATA     BYTE      P5
      000000E8H   SFRSYM    DATA     BYTE      P6
      000000E1H   SFRSYM    DATA     BYTE      P7M1
      000000A8H.7 SFRSYM    DATA     BIT       EA
      000000F8H   SFRSYM    DATA     BYTE      P7
      000000AAH   SFRSYM    DATA     BYTE      WKTCL
      000000CEH   SFRSYM    DATA     BYTE      SPCTL
      000000A2H   SFRSYM    DATA     BYTE      P_SW1
      000000BAH   SFRSYM    DATA     BYTE      P_SW2
      000000E5H   SFRSYM    DATA     BYTE      DPH1
      000000A8H.5 SFRSYM    DATA     BIT       EADC
      000000A8H   SFRSYM    DATA     BYTE      IE
      000000C5H   SFRSYM    DATA     BYTE      IAP_CMD
      000000E4H   SFRSYM    DATA     BYTE      DPL1
      000000BDH   SFRSYM    DATA     BYTE      ADC_RES
      000000B6H   SFRSYM    DATA     BYTE      IP2H
      000000EEH   SFRSYM    DATA     BYTE      IP3H
      000000AEH   SFRSYM    DATA     BYTE      TA
      0000008FH   SFRSYM    DATA     BYTE      INTCLKO
      000000A8H.4 SFRSYM    DATA     BIT       ES
      000000B8H.5 SFRSYM    DATA     BIT       PADC
      000000B8H   SFRSYM    DATA     BYTE      IP
      000000DEH   SFRSYM    DATA     BYTE      ADCCFG
      00000098H   SFRSYM    DATA     BIT       RI
      000000D0H.7 SFRSYM    DATA     BIT       CY
      00000098H.1 SFRSYM    DATA     BIT       TI
      000000C3H   SFRSYM    DATA     BYTE      IAP_ADDRH
      000000B8H.4 SFRSYM    DATA     BIT       PS
      00000081H   SFRSYM    DATA     BYTE      SP
      000000C4H   SFRSYM    DATA     BYTE      IAP_ADDRL
      000000D0H.2 SFRSYM    DATA     BIT       OV
      000000B8H.7 SFRSYM    DATA     BIT       PPCA
      0000009EH   SFRSYM    DATA     BYTE      LIRTRIM
      000000E6H   SFRSYM    DATA     BYTE      CMPCR1
      000000E7H   SFRSYM    DATA     BYTE      CMPCR2
      000000A8H.6 SFRSYM    DATA     BIT       ELVD
      00000080H   SFRSYM    DATA     BIT       P00
      000000BCH   SFRSYM    DATA     BYTE      ADC_CONTR
      00000099H   SFRSYM    DATA     BYTE      SBUF
LX51 LINKER/LOCATER V4.41                                                             05/12/2022  17:30:48  PAGE 85


      00000090H   SFRSYM    DATA     BIT       P10
      00000087H   SFRSYM    DATA     BYTE      PCON
      00000080H.1 SFRSYM    DATA     BIT       P01
      000000A0H   SFRSYM    DATA     BIT       P20
      00000090H.1 SFRSYM    DATA     BIT       P11
      00000080H.2 SFRSYM    DATA     BIT       P02
      000000F5H   SFRSYM    DATA     BYTE      IAP_TPS
      000000B0H   SFRSYM    DATA     BIT       P30
      000000A0H.1 SFRSYM    DATA     BIT       P21
      00000090H.2 SFRSYM    DATA     BIT       P12
      00000080H.3 SFRSYM    DATA     BIT       P03
      000000C0H   SFRSYM    DATA     BIT       P40
      000000B0H.1 SFRSYM    DATA     BIT       P31
      000000A0H.2 SFRSYM    DATA     BIT       P22
      00000098H   SFRSYM    DATA     BYTE      SCON
      00000090H.3 SFRSYM    DATA     BIT       P13
      00000080H.4 SFRSYM    DATA     BIT       P04
      000000C8H   SFRSYM    DATA     BIT       P50
      000000C0H.1 SFRSYM    DATA     BIT       P41
      000000B0H.2 SFRSYM    DATA     BIT       P32
      000000A0H.3 SFRSYM    DATA     BIT       P23
      00000090H.4 SFRSYM    DATA     BIT       P14
      00000089H   SFRSYM    DATA     BYTE      TMOD
      00000088H   SFRSYM    DATA     BYTE      TCON
      00000080H.5 SFRSYM    DATA     BIT       P05
      000000E8H   SFRSYM    DATA     BIT       P60
      000000C8H.1 SFRSYM    DATA     BIT       P51
      000000C0H.2 SFRSYM    DATA     BIT       P42
      000000B0H.3 SFRSYM    DATA     BIT       P33
      000000A0H.4 SFRSYM    DATA     BIT       P24
      00000090H.5 SFRSYM    DATA     BIT       P15
      00000080H.6 SFRSYM    DATA     BIT       P06
      000000F8H   SFRSYM    DATA     BIT       P70
      000000E8H.1 SFRSYM    DATA     BIT       P61
      000000C8H.2 SFRSYM    DATA     BIT       P52
      000000C0H.3 SFRSYM    DATA     BIT       P43
      000000B8H.6 SFRSYM    DATA     BIT       PLVD
      000000B0H.4 SFRSYM    DATA     BIT       P34
      000000A0H.5 SFRSYM    DATA     BIT       P25
      00000090H.6 SFRSYM    DATA     BIT       P16
      00000080H.7 SFRSYM    DATA     BIT       P07
      000000F8H.1 SFRSYM    DATA     BIT       P71
      000000E8H.2 SFRSYM    DATA     BIT       P62
      000000C8H.3 SFRSYM    DATA     BIT       P53
      000000C0H.4 SFRSYM    DATA     BIT       P44
      000000B0H.5 SFRSYM    DATA     BIT       P35
      000000A0H.6 SFRSYM    DATA     BIT       P26
      00000090H.7 SFRSYM    DATA     BIT       P17
      000000F8H.2 SFRSYM    DATA     BIT       P72
      000000E8H.3 SFRSYM    DATA     BIT       P63
      000000C8H.4 SFRSYM    DATA     BIT       P54
      000000C0H.5 SFRSYM    DATA     BIT       P45
      000000B0H.6 SFRSYM    DATA     BIT       P36
      000000A0H.7 SFRSYM    DATA     BIT       P27
      000000F8H.3 SFRSYM    DATA     BIT       P73
      000000E8H.4 SFRSYM    DATA     BIT       P64
      000000C8H.5 SFRSYM    DATA     BIT       P55
      000000C0H.6 SFRSYM    DATA     BIT       P46
      000000B0H.7 SFRSYM    DATA     BIT       P37
      000000F8H.4 SFRSYM    DATA     BIT       P74
      000000E8H.5 SFRSYM    DATA     BIT       P65
      000000C8H.6 SFRSYM    DATA     BIT       P56
      000000C0H.7 SFRSYM    DATA     BIT       P47
      000000F8H.5 SFRSYM    DATA     BIT       P75
      000000E8H.6 SFRSYM    DATA     BIT       P66
LX51 LINKER/LOCATER V4.41                                                             05/12/2022  17:30:48  PAGE 86


      000000C8H.7 SFRSYM    DATA     BIT       P57
      000000F8H.6 SFRSYM    DATA     BIT       P76
      000000E8H.7 SFRSYM    DATA     BIT       P67
      000000F8H.7 SFRSYM    DATA     BIT       P77
      00000088H.1 SFRSYM    DATA     BIT       IE0
      00000088H.3 SFRSYM    DATA     BIT       IE1
      000000AFH   SFRSYM    DATA     BYTE      IE2
      000000F0H   SFRSYM    DATA     BYTE      B
      0000008EH   SFRSYM    DATA     BYTE      AUXR
      000000FCH   SFRSYM    DATA     BYTE      USBADR
      000000C7H   SFRSYM    DATA     BYTE      IAP_CONTR
      000000ECH   SFRSYM    DATA     BYTE      USBDAT
      000000DCH   SFRSYM    DATA     BYTE      USBCLK
      000000E0H   SFRSYM    DATA     BYTE      ACC
      000000A8H.1 SFRSYM    DATA     BIT       ET0
      000000A8H.3 SFRSYM    DATA     BIT       ET1
      00000088H.5 SFRSYM    DATA     BIT       TF0
      000000FFH   SFRSYM    DATA     BYTE      RSTCFG
      000000B5H   SFRSYM    DATA     BYTE      IP2
      00000088H.7 SFRSYM    DATA     BIT       TF1
      000000F4H   SFRSYM    DATA     BYTE      USBCON
      000000DFH   SFRSYM    DATA     BYTE      IP3
      00000098H.2 SFRSYM    DATA     BIT       RB8
      0000008CH   SFRSYM    DATA     BYTE      TH0
      000000A8H   SFRSYM    DATA     BIT       EX0
      0000008DH   SFRSYM    DATA     BYTE      TH1
      00000088H   SFRSYM    DATA     BIT       IT0
      000000D6H   SFRSYM    DATA     BYTE      T2H
      000000A8H.2 SFRSYM    DATA     BIT       EX1
      00000098H.3 SFRSYM    DATA     BIT       TB8
      00000088H.2 SFRSYM    DATA     BIT       IT1
      000000D4H   SFRSYM    DATA     BYTE      T3H
      000000D0H   SFRSYM    DATA     BIT       P
      000000D2H   SFRSYM    DATA     BYTE      T4H
      00000098H.7 SFRSYM    DATA     BIT       SM0
      0000008AH   SFRSYM    DATA     BYTE      TL0
      00000098H.6 SFRSYM    DATA     BIT       SM1
      0000008BH   SFRSYM    DATA     BYTE      TL1
      000000D7H   SFRSYM    DATA     BYTE      T2L
      00000098H.5 SFRSYM    DATA     BIT       SM2
      000000D5H   SFRSYM    DATA     BYTE      T3L
      000000D3H   SFRSYM    DATA     BYTE      T4L
      000000B8H.1 SFRSYM    DATA     BIT       PT0
      000000D0H.3 SFRSYM    DATA     BIT       RS0
      000000B8H.3 SFRSYM    DATA     BIT       PT1
      000000D0H.4 SFRSYM    DATA     BIT       RS1
      000000C2H   SFRSYM    DATA     BYTE      IAP_DATA
      00000088H.4 SFRSYM    DATA     BIT       TR0
      00000088H.6 SFRSYM    DATA     BIT       TR1
      000000C1H   SFRSYM    DATA     BYTE      WDT_CONTR
      000000B8H   SFRSYM    DATA     BIT       PX0
      000000B8H.2 SFRSYM    DATA     BIT       PX1
      0000009FH   SFRSYM    DATA     BYTE      IRTRIM
      00000083H   SFRSYM    DATA     BYTE      DPH
      000000D1H   SFRSYM    DATA     BYTE      T4T3M
      000000BEH   SFRSYM    DATA     BYTE      ADC_RESL
      00000082H   SFRSYM    DATA     BYTE      DPL
      000000CDH   SFRSYM    DATA     BYTE      SPSTAT
      000000B7H   SFRSYM    DATA     BYTE      IPH
      0000009BH   SFRSYM    DATA     BYTE      S2BUF
      000000ADH   SFRSYM    DATA     BYTE      S3BUF
      00000098H.4 SFRSYM    DATA     BIT       REN
      00000085H   SFRSYM    DATA     BYTE      S4BUF
      0000009AH   SFRSYM    DATA     BYTE      S2CON
      000000E3H   SFRSYM    DATA     BYTE      DPS
LX51 LINKER/LOCATER V4.41                                                             05/12/2022  17:30:48  PAGE 87


      000000ACH   SFRSYM    DATA     BYTE      S3CON
      00000084H   SFRSYM    DATA     BYTE      S4CON
      000000EFH   SFRSYM    DATA     BYTE      AUXINTIF
      000000B9H   SFRSYM    DATA     BYTE      SADEN
      000000A9H   SFRSYM    DATA     BYTE      SADDR
      000000C6H   SFRSYM    DATA     BYTE      IAP_TRIG
      000000D0H.5 SFRSYM    DATA     BIT       F0
      0000009DH   SFRSYM    DATA     BYTE      IRCBAND
      000000D0H   SFRSYM    DATA     BYTE      PSW
      000000CFH   SFRSYM    DATA     BYTE      SPDAT
      00000094H   SFRSYM    DATA     BYTE      P0M0

      01001652H   BLOCK     CODE     ---       LVL=0
      01001652H   BLOCK     CODE     NEAR LAB  LVL=1
      02000225H   SYMBOL    XDATA    BYTE      i
      ---         BLOCKEND  ---      ---       LVL=1
      01001652H   LINE      CODE     ---       #85
      01001652H   LINE      CODE     ---       #86
      01001652H   LINE      CODE     ---       #87
      01001657H   LINE      CODE     ---       #89
      01001659H   LINE      CODE     ---       #90
      0100165BH   LINE      CODE     ---       #91
      0100165DH   LINE      CODE     ---       #92
      0100165FH   LINE      CODE     ---       #93
      01001661H   LINE      CODE     ---       #94
      01001663H   LINE      CODE     ---       #96
      01001664H   LINE      CODE     ---       #97
      01001664H   LINE      CODE     ---       #98
      01001666H   LINE      CODE     ---       #99
      01001681H   LINE      CODE     ---       #101
      01001683H   LINE      CODE     ---       #102
      0100168FH   LINE      CODE     ---       #103
      01001695H   LINE      CODE     ---       #104
      ---         BLOCKEND  ---      ---       LVL=0

      ---         MODULE    ---      ---       SEEKFREE_IPS114_SPI
      00000093H   SFRSYM    DATA     BYTE      P0M1
      00000092H   SFRSYM    DATA     BYTE      P1M0
      00000096H   SFRSYM    DATA     BYTE      P2M0
      00000091H   SFRSYM    DATA     BYTE      P1M1
      00000080H   SFRSYM    DATA     BYTE      P0
      000000B2H   SFRSYM    DATA     BYTE      P3M0
      00000095H   SFRSYM    DATA     BYTE      P2M1
      00000090H   SFRSYM    DATA     BYTE      P1
      000000B4H   SFRSYM    DATA     BYTE      P4M0
      000000B1H   SFRSYM    DATA     BYTE      P3M1
      000000A0H   SFRSYM    DATA     BYTE      P2
      000000CAH   SFRSYM    DATA     BYTE      P5M0
      000000B3H   SFRSYM    DATA     BYTE      P4M1
      000000B0H   SFRSYM    DATA     BYTE      P3
      000000ABH   SFRSYM    DATA     BYTE      WKTCH
      000000D0H.6 SFRSYM    DATA     BIT       AC
      000000CCH   SFRSYM    DATA     BYTE      P6M0
      000000C9H   SFRSYM    DATA     BYTE      P5M1
      000000C0H   SFRSYM    DATA     BYTE      P4
      000000E2H   SFRSYM    DATA     BYTE      P7M0
      000000CBH   SFRSYM    DATA     BYTE      P6M1
      000000C8H   SFRSYM    DATA     BYTE      P5
      000000E8H   SFRSYM    DATA     BYTE      P6
      000000E1H   SFRSYM    DATA     BYTE      P7M1
      000000A8H.7 SFRSYM    DATA     BIT       EA
      000000F8H   SFRSYM    DATA     BYTE      P7
      000000AAH   SFRSYM    DATA     BYTE      WKTCL
      000000CEH   SFRSYM    DATA     BYTE      SPCTL
      000000A2H   SFRSYM    DATA     BYTE      P_SW1
LX51 LINKER/LOCATER V4.41                                                             05/12/2022  17:30:48  PAGE 88


      000000BAH   SFRSYM    DATA     BYTE      P_SW2
      000000E5H   SFRSYM    DATA     BYTE      DPH1
      000000A8H.5 SFRSYM    DATA     BIT       EADC
      000000A8H   SFRSYM    DATA     BYTE      IE
      000000C5H   SFRSYM    DATA     BYTE      IAP_CMD
      000000E4H   SFRSYM    DATA     BYTE      DPL1
      000000BDH   SFRSYM    DATA     BYTE      ADC_RES
      000000B6H   SFRSYM    DATA     BYTE      IP2H
      000000EEH   SFRSYM    DATA     BYTE      IP3H
      000000AEH   SFRSYM    DATA     BYTE      TA
      0000008FH   SFRSYM    DATA     BYTE      INTCLKO
      000000A8H.4 SFRSYM    DATA     BIT       ES
      000000B8H.5 SFRSYM    DATA     BIT       PADC
      000000B8H   SFRSYM    DATA     BYTE      IP
      000000DEH   SFRSYM    DATA     BYTE      ADCCFG
      00000098H   SFRSYM    DATA     BIT       RI
      000000D0H.7 SFRSYM    DATA     BIT       CY
      00000098H.1 SFRSYM    DATA     BIT       TI
      000000C3H   SFRSYM    DATA     BYTE      IAP_ADDRH
      000000B8H.4 SFRSYM    DATA     BIT       PS
      00000081H   SFRSYM    DATA     BYTE      SP
      000000C4H   SFRSYM    DATA     BYTE      IAP_ADDRL
      000000D0H.2 SFRSYM    DATA     BIT       OV
      000000B8H.7 SFRSYM    DATA     BIT       PPCA
      0000009EH   SFRSYM    DATA     BYTE      LIRTRIM
      000000E6H   SFRSYM    DATA     BYTE      CMPCR1
      000000E7H   SFRSYM    DATA     BYTE      CMPCR2
      000000A8H.6 SFRSYM    DATA     BIT       ELVD
      00000080H   SFRSYM    DATA     BIT       P00
      000000BCH   SFRSYM    DATA     BYTE      ADC_CONTR
      00000099H   SFRSYM    DATA     BYTE      SBUF
      00000090H   SFRSYM    DATA     BIT       P10
      00000087H   SFRSYM    DATA     BYTE      PCON
      00000080H.1 SFRSYM    DATA     BIT       P01
      000000A0H   SFRSYM    DATA     BIT       P20
      00000090H.1 SFRSYM    DATA     BIT       P11
      00000080H.2 SFRSYM    DATA     BIT       P02
      000000F5H   SFRSYM    DATA     BYTE      IAP_TPS
      000000B0H   SFRSYM    DATA     BIT       P30
      000000A0H.1 SFRSYM    DATA     BIT       P21
      00000090H.2 SFRSYM    DATA     BIT       P12
      00000080H.3 SFRSYM    DATA     BIT       P03
      000000C0H   SFRSYM    DATA     BIT       P40
      000000B0H.1 SFRSYM    DATA     BIT       P31
      000000A0H.2 SFRSYM    DATA     BIT       P22
      00000098H   SFRSYM    DATA     BYTE      SCON
      00000090H.3 SFRSYM    DATA     BIT       P13
      00000080H.4 SFRSYM    DATA     BIT       P04
      000000C8H   SFRSYM    DATA     BIT       P50
      000000C0H.1 SFRSYM    DATA     BIT       P41
      000000B0H.2 SFRSYM    DATA     BIT       P32
      000000A0H.3 SFRSYM    DATA     BIT       P23
      00000090H.4 SFRSYM    DATA     BIT       P14
      00000089H   SFRSYM    DATA     BYTE      TMOD
      00000088H   SFRSYM    DATA     BYTE      TCON
      00000080H.5 SFRSYM    DATA     BIT       P05
      000000E8H   SFRSYM    DATA     BIT       P60
      000000C8H.1 SFRSYM    DATA     BIT       P51
      000000C0H.2 SFRSYM    DATA     BIT       P42
      000000B0H.3 SFRSYM    DATA     BIT       P33
      000000A0H.4 SFRSYM    DATA     BIT       P24
      00000090H.5 SFRSYM    DATA     BIT       P15
      00000080H.6 SFRSYM    DATA     BIT       P06
      000000F8H   SFRSYM    DATA     BIT       P70
      000000E8H.1 SFRSYM    DATA     BIT       P61
LX51 LINKER/LOCATER V4.41                                                             05/12/2022  17:30:48  PAGE 89


      000000C8H.2 SFRSYM    DATA     BIT       P52
      000000C0H.3 SFRSYM    DATA     BIT       P43
      000000B8H.6 SFRSYM    DATA     BIT       PLVD
      000000B0H.4 SFRSYM    DATA     BIT       P34
      000000A0H.5 SFRSYM    DATA     BIT       P25
      00000090H.6 SFRSYM    DATA     BIT       P16
      00000080H.7 SFRSYM    DATA     BIT       P07
      000000F8H.1 SFRSYM    DATA     BIT       P71
      000000E8H.2 SFRSYM    DATA     BIT       P62
      000000C8H.3 SFRSYM    DATA     BIT       P53
      000000C0H.4 SFRSYM    DATA     BIT       P44
      000000B0H.5 SFRSYM    DATA     BIT       P35
      000000A0H.6 SFRSYM    DATA     BIT       P26
      00000090H.7 SFRSYM    DATA     BIT       P17
      000000F8H.2 SFRSYM    DATA     BIT       P72
      000000E8H.3 SFRSYM    DATA     BIT       P63
      000000C8H.4 SFRSYM    DATA     BIT       P54
      000000C0H.5 SFRSYM    DATA     BIT       P45
      000000B0H.6 SFRSYM    DATA     BIT       P36
      000000A0H.7 SFRSYM    DATA     BIT       P27
      000000F8H.3 SFRSYM    DATA     BIT       P73
      000000E8H.4 SFRSYM    DATA     BIT       P64
      000000C8H.5 SFRSYM    DATA     BIT       P55
      000000C0H.6 SFRSYM    DATA     BIT       P46
      000000B0H.7 SFRSYM    DATA     BIT       P37
      000000F8H.4 SFRSYM    DATA     BIT       P74
      000000E8H.5 SFRSYM    DATA     BIT       P65
      000000C8H.6 SFRSYM    DATA     BIT       P56
      000000C0H.7 SFRSYM    DATA     BIT       P47
      000000F8H.5 SFRSYM    DATA     BIT       P75
      000000E8H.6 SFRSYM    DATA     BIT       P66
      000000C8H.7 SFRSYM    DATA     BIT       P57
      000000F8H.6 SFRSYM    DATA     BIT       P76
      000000E8H.7 SFRSYM    DATA     BIT       P67
      000000F8H.7 SFRSYM    DATA     BIT       P77
      00000088H.1 SFRSYM    DATA     BIT       IE0
      00000088H.3 SFRSYM    DATA     BIT       IE1
      000000AFH   SFRSYM    DATA     BYTE      IE2
      000000F0H   SFRSYM    DATA     BYTE      B
      0000008EH   SFRSYM    DATA     BYTE      AUXR
      000000FCH   SFRSYM    DATA     BYTE      USBADR
      000000C7H   SFRSYM    DATA     BYTE      IAP_CONTR
      000000ECH   SFRSYM    DATA     BYTE      USBDAT
      000000DCH   SFRSYM    DATA     BYTE      USBCLK
      000000E0H   SFRSYM    DATA     BYTE      ACC
      000000A8H.1 SFRSYM    DATA     BIT       ET0
      000000A8H.3 SFRSYM    DATA     BIT       ET1
      00000088H.5 SFRSYM    DATA     BIT       TF0
      000000FFH   SFRSYM    DATA     BYTE      RSTCFG
      000000B5H   SFRSYM    DATA     BYTE      IP2
      00000088H.7 SFRSYM    DATA     BIT       TF1
      000000F4H   SFRSYM    DATA     BYTE      USBCON
      000000DFH   SFRSYM    DATA     BYTE      IP3
      00000098H.2 SFRSYM    DATA     BIT       RB8
      0000008CH   SFRSYM    DATA     BYTE      TH0
      000000A8H   SFRSYM    DATA     BIT       EX0
      0000008DH   SFRSYM    DATA     BYTE      TH1
      00000088H   SFRSYM    DATA     BIT       IT0
      000000D6H   SFRSYM    DATA     BYTE      T2H
      000000A8H.2 SFRSYM    DATA     BIT       EX1
      00000098H.3 SFRSYM    DATA     BIT       TB8
      00000088H.2 SFRSYM    DATA     BIT       IT1
      000000D4H   SFRSYM    DATA     BYTE      T3H
      000000D0H   SFRSYM    DATA     BIT       P
      000000D2H   SFRSYM    DATA     BYTE      T4H
LX51 LINKER/LOCATER V4.41                                                             05/12/2022  17:30:48  PAGE 90


      00000098H.7 SFRSYM    DATA     BIT       SM0
      0000008AH   SFRSYM    DATA     BYTE      TL0
      00000098H.6 SFRSYM    DATA     BIT       SM1
      0000008BH   SFRSYM    DATA     BYTE      TL1
      000000D7H   SFRSYM    DATA     BYTE      T2L
      00000098H.5 SFRSYM    DATA     BIT       SM2
      000000D5H   SFRSYM    DATA     BYTE      T3L
      000000D3H   SFRSYM    DATA     BYTE      T4L
      000000B8H.1 SFRSYM    DATA     BIT       PT0
      000000D0H.3 SFRSYM    DATA     BIT       RS0
      000000B8H.3 SFRSYM    DATA     BIT       PT1
      000000D0H.4 SFRSYM    DATA     BIT       RS1
      000000C2H   SFRSYM    DATA     BYTE      IAP_DATA
      00000088H.4 SFRSYM    DATA     BIT       TR0
      00000088H.6 SFRSYM    DATA     BIT       TR1
      000000C1H   SFRSYM    DATA     BYTE      WDT_CONTR
      000000B8H   SFRSYM    DATA     BIT       PX0
      000000B8H.2 SFRSYM    DATA     BIT       PX1
      0000009FH   SFRSYM    DATA     BYTE      IRTRIM
      00000083H   SFRSYM    DATA     BYTE      DPH
      000000D1H   SFRSYM    DATA     BYTE      T4T3M
      000000BEH   SFRSYM    DATA     BYTE      ADC_RESL
      00000082H   SFRSYM    DATA     BYTE      DPL
      000000CDH   SFRSYM    DATA     BYTE      SPSTAT
      000000B7H   SFRSYM    DATA     BYTE      IPH
      0000009BH   SFRSYM    DATA     BYTE      S2BUF
      000000ADH   SFRSYM    DATA     BYTE      S3BUF
      00000098H.4 SFRSYM    DATA     BIT       REN
      00000085H   SFRSYM    DATA     BYTE      S4BUF
      0000009AH   SFRSYM    DATA     BYTE      S2CON
      000000E3H   SFRSYM    DATA     BYTE      DPS
      000000ACH   SFRSYM    DATA     BYTE      S3CON
      00000084H   SFRSYM    DATA     BYTE      S4CON
      000000EFH   SFRSYM    DATA     BYTE      AUXINTIF
      000000B9H   SFRSYM    DATA     BYTE      SADEN
      000000A9H   SFRSYM    DATA     BYTE      SADDR
      000000C6H   SFRSYM    DATA     BYTE      IAP_TRIG
      000000D0H.5 SFRSYM    DATA     BIT       F0
      0000009DH   SFRSYM    DATA     BYTE      IRCBAND
      000000D0H   SFRSYM    DATA     BYTE      PSW
      000000CFH   SFRSYM    DATA     BYTE      SPDAT
      00000094H   SFRSYM    DATA     BYTE      P0M0
      00000007H   SYMBOL    DATA     BYTE      dat
      00000006H   SYMBOL    DATA     BYTE      i
      00000007H   SYMBOL    DATA     BYTE      dat
      00000006H   SYMBOL    DATA     BYTE      i
      00000006H   SYMBOL    DATA     BYTE      i
      00000006H   SYMBOL    DATA     WORD      dat
      00000005H   SYMBOL    DATA     BYTE      i
      00000005H   SYMBOL    DATA     BYTE      i
      00000002H   SYMBOL    DATA     WORD      x2
      00000002H   SYMBOL    DATA     WORD      j
      00000002H   SYMBOL    DATA     BYTE      j
      00000003H   SYMBOL    DATA     BYTE      temp
      00000002H   SYMBOL    DATA     BYTE      j
      00000003H   SYMBOL    DATA     BYTE      temp
      00000003H   SYMBOL    DATA     BYTE      dat
      00000002H   SYMBOL    DATA     WORD      dat
      00000005H   SYMBOL    DATA     CHAR      point
      00000007H   SYMBOL    DATA     BYTE      dat
      00000007H   SYMBOL    DATA     BYTE      dat
      00000004H   SYMBOL    DATA     WORD      dat
      00000003H   SYMBOL    DATA     BYTE      dat
      00000002H   SYMBOL    DATA     WORD      dat
      00000005H   SYMBOL    DATA     CHAR      point
LX51 LINKER/LOCATER V4.41                                                             05/12/2022  17:30:48  PAGE 91



      ---         MODULE    ---      ---       SEEKFREE_MPU6050
      02000219H   PUBLIC    XDATA    INT       mpu_gyro_z
      02000217H   PUBLIC    XDATA    INT       mpu_gyro_y
      02000215H   PUBLIC    XDATA    INT       mpu_gyro_x
      02000213H   PUBLIC    XDATA    INT       mpu_acc_z
      02000211H   PUBLIC    XDATA    INT       mpu_acc_y
      0200020FH   PUBLIC    XDATA    INT       mpu_acc_x
      00000093H   SFRSYM    DATA     BYTE      P0M1
      00000092H   SFRSYM    DATA     BYTE      P1M0
      00000096H   SFRSYM    DATA     BYTE      P2M0
      00000091H   SFRSYM    DATA     BYTE      P1M1
      00000080H   SFRSYM    DATA     BYTE      P0
      000000B2H   SFRSYM    DATA     BYTE      P3M0
      00000095H   SFRSYM    DATA     BYTE      P2M1
      00000090H   SFRSYM    DATA     BYTE      P1
      000000B4H   SFRSYM    DATA     BYTE      P4M0
      000000B1H   SFRSYM    DATA     BYTE      P3M1
      000000A0H   SFRSYM    DATA     BYTE      P2
      000000CAH   SFRSYM    DATA     BYTE      P5M0
      000000B3H   SFRSYM    DATA     BYTE      P4M1
      000000B0H   SFRSYM    DATA     BYTE      P3
      000000ABH   SFRSYM    DATA     BYTE      WKTCH
      000000D0H.6 SFRSYM    DATA     BIT       AC
      000000CCH   SFRSYM    DATA     BYTE      P6M0
      000000C9H   SFRSYM    DATA     BYTE      P5M1
      000000C0H   SFRSYM    DATA     BYTE      P4
      000000E2H   SFRSYM    DATA     BYTE      P7M0
      000000CBH   SFRSYM    DATA     BYTE      P6M1
      000000C8H   SFRSYM    DATA     BYTE      P5
      000000E8H   SFRSYM    DATA     BYTE      P6
      000000E1H   SFRSYM    DATA     BYTE      P7M1
      000000A8H.7 SFRSYM    DATA     BIT       EA
      000000F8H   SFRSYM    DATA     BYTE      P7
      000000AAH   SFRSYM    DATA     BYTE      WKTCL
      000000CEH   SFRSYM    DATA     BYTE      SPCTL
      000000A2H   SFRSYM    DATA     BYTE      P_SW1
      000000BAH   SFRSYM    DATA     BYTE      P_SW2
      000000E5H   SFRSYM    DATA     BYTE      DPH1
      000000A8H.5 SFRSYM    DATA     BIT       EADC
      000000A8H   SFRSYM    DATA     BYTE      IE
      000000C5H   SFRSYM    DATA     BYTE      IAP_CMD
      000000E4H   SFRSYM    DATA     BYTE      DPL1
      000000BDH   SFRSYM    DATA     BYTE      ADC_RES
      000000B6H   SFRSYM    DATA     BYTE      IP2H
      000000EEH   SFRSYM    DATA     BYTE      IP3H
      000000AEH   SFRSYM    DATA     BYTE      TA
      0000008FH   SFRSYM    DATA     BYTE      INTCLKO
      000000A8H.4 SFRSYM    DATA     BIT       ES
      000000B8H.5 SFRSYM    DATA     BIT       PADC
      000000B8H   SFRSYM    DATA     BYTE      IP
      000000DEH   SFRSYM    DATA     BYTE      ADCCFG
      00000098H   SFRSYM    DATA     BIT       RI
      000000D0H.7 SFRSYM    DATA     BIT       CY
      00000098H.1 SFRSYM    DATA     BIT       TI
      000000C3H   SFRSYM    DATA     BYTE      IAP_ADDRH
      000000B8H.4 SFRSYM    DATA     BIT       PS
      00000081H   SFRSYM    DATA     BYTE      SP
      000000C4H   SFRSYM    DATA     BYTE      IAP_ADDRL
      000000D0H.2 SFRSYM    DATA     BIT       OV
      000000B8H.7 SFRSYM    DATA     BIT       PPCA
      0000009EH   SFRSYM    DATA     BYTE      LIRTRIM
      000000E6H   SFRSYM    DATA     BYTE      CMPCR1
      000000E7H   SFRSYM    DATA     BYTE      CMPCR2
      000000A8H.6 SFRSYM    DATA     BIT       ELVD
LX51 LINKER/LOCATER V4.41                                                             05/12/2022  17:30:48  PAGE 92


      00000080H   SFRSYM    DATA     BIT       P00
      000000BCH   SFRSYM    DATA     BYTE      ADC_CONTR
      00000099H   SFRSYM    DATA     BYTE      SBUF
      00000090H   SFRSYM    DATA     BIT       P10
      00000087H   SFRSYM    DATA     BYTE      PCON
      00000080H.1 SFRSYM    DATA     BIT       P01
      000000A0H   SFRSYM    DATA     BIT       P20
      00000090H.1 SFRSYM    DATA     BIT       P11
      00000080H.2 SFRSYM    DATA     BIT       P02
      000000F5H   SFRSYM    DATA     BYTE      IAP_TPS
      000000B0H   SFRSYM    DATA     BIT       P30
      000000A0H.1 SFRSYM    DATA     BIT       P21
      00000090H.2 SFRSYM    DATA     BIT       P12
      00000080H.3 SFRSYM    DATA     BIT       P03
      000000C0H   SFRSYM    DATA     BIT       P40
      000000B0H.1 SFRSYM    DATA     BIT       P31
      000000A0H.2 SFRSYM    DATA     BIT       P22
      00000098H   SFRSYM    DATA     BYTE      SCON
      00000090H.3 SFRSYM    DATA     BIT       P13
      00000080H.4 SFRSYM    DATA     BIT       P04
      000000C8H   SFRSYM    DATA     BIT       P50
      000000C0H.1 SFRSYM    DATA     BIT       P41
      000000B0H.2 SFRSYM    DATA     BIT       P32
      000000A0H.3 SFRSYM    DATA     BIT       P23
      00000090H.4 SFRSYM    DATA     BIT       P14
      00000089H   SFRSYM    DATA     BYTE      TMOD
      00000088H   SFRSYM    DATA     BYTE      TCON
      00000080H.5 SFRSYM    DATA     BIT       P05
      000000E8H   SFRSYM    DATA     BIT       P60
      000000C8H.1 SFRSYM    DATA     BIT       P51
      000000C0H.2 SFRSYM    DATA     BIT       P42
      000000B0H.3 SFRSYM    DATA     BIT       P33
      000000A0H.4 SFRSYM    DATA     BIT       P24
      00000090H.5 SFRSYM    DATA     BIT       P15
      00000080H.6 SFRSYM    DATA     BIT       P06
      000000F8H   SFRSYM    DATA     BIT       P70
      000000E8H.1 SFRSYM    DATA     BIT       P61
      000000C8H.2 SFRSYM    DATA     BIT       P52
      000000C0H.3 SFRSYM    DATA     BIT       P43
      000000B8H.6 SFRSYM    DATA     BIT       PLVD
      000000B0H.4 SFRSYM    DATA     BIT       P34
      000000A0H.5 SFRSYM    DATA     BIT       P25
      00000090H.6 SFRSYM    DATA     BIT       P16
      00000080H.7 SFRSYM    DATA     BIT       P07
      000000F8H.1 SFRSYM    DATA     BIT       P71
      000000E8H.2 SFRSYM    DATA     BIT       P62
      000000C8H.3 SFRSYM    DATA     BIT       P53
      000000C0H.4 SFRSYM    DATA     BIT       P44
      000000B0H.5 SFRSYM    DATA     BIT       P35
      000000A0H.6 SFRSYM    DATA     BIT       P26
      00000090H.7 SFRSYM    DATA     BIT       P17
      000000F8H.2 SFRSYM    DATA     BIT       P72
      000000E8H.3 SFRSYM    DATA     BIT       P63
      000000C8H.4 SFRSYM    DATA     BIT       P54
      000000C0H.5 SFRSYM    DATA     BIT       P45
      000000B0H.6 SFRSYM    DATA     BIT       P36
      000000A0H.7 SFRSYM    DATA     BIT       P27
      000000F8H.3 SFRSYM    DATA     BIT       P73
      000000E8H.4 SFRSYM    DATA     BIT       P64
      000000C8H.5 SFRSYM    DATA     BIT       P55
      000000C0H.6 SFRSYM    DATA     BIT       P46
      000000B0H.7 SFRSYM    DATA     BIT       P37
      000000F8H.4 SFRSYM    DATA     BIT       P74
      000000E8H.5 SFRSYM    DATA     BIT       P65
      000000C8H.6 SFRSYM    DATA     BIT       P56
LX51 LINKER/LOCATER V4.41                                                             05/12/2022  17:30:48  PAGE 93


      000000C0H.7 SFRSYM    DATA     BIT       P47
      000000F8H.5 SFRSYM    DATA     BIT       P75
      000000E8H.6 SFRSYM    DATA     BIT       P66
      000000C8H.7 SFRSYM    DATA     BIT       P57
      000000F8H.6 SFRSYM    DATA     BIT       P76
      000000E8H.7 SFRSYM    DATA     BIT       P67
      000000F8H.7 SFRSYM    DATA     BIT       P77
      00000088H.1 SFRSYM    DATA     BIT       IE0
      00000088H.3 SFRSYM    DATA     BIT       IE1
      000000AFH   SFRSYM    DATA     BYTE      IE2
      000000F0H   SFRSYM    DATA     BYTE      B
      0000008EH   SFRSYM    DATA     BYTE      AUXR
      000000FCH   SFRSYM    DATA     BYTE      USBADR
      000000C7H   SFRSYM    DATA     BYTE      IAP_CONTR
      000000ECH   SFRSYM    DATA     BYTE      USBDAT
      000000DCH   SFRSYM    DATA     BYTE      USBCLK
      000000E0H   SFRSYM    DATA     BYTE      ACC
      000000A8H.1 SFRSYM    DATA     BIT       ET0
      000000A8H.3 SFRSYM    DATA     BIT       ET1
      00000088H.5 SFRSYM    DATA     BIT       TF0
      000000FFH   SFRSYM    DATA     BYTE      RSTCFG
      000000B5H   SFRSYM    DATA     BYTE      IP2
      00000088H.7 SFRSYM    DATA     BIT       TF1
      000000F4H   SFRSYM    DATA     BYTE      USBCON
      000000DFH   SFRSYM    DATA     BYTE      IP3
      00000098H.2 SFRSYM    DATA     BIT       RB8
      0000008CH   SFRSYM    DATA     BYTE      TH0
      000000A8H   SFRSYM    DATA     BIT       EX0
      0000008DH   SFRSYM    DATA     BYTE      TH1
      00000088H   SFRSYM    DATA     BIT       IT0
      000000D6H   SFRSYM    DATA     BYTE      T2H
      000000A8H.2 SFRSYM    DATA     BIT       EX1
      00000098H.3 SFRSYM    DATA     BIT       TB8
      00000088H.2 SFRSYM    DATA     BIT       IT1
      000000D4H   SFRSYM    DATA     BYTE      T3H
      000000D0H   SFRSYM    DATA     BIT       P
      000000D2H   SFRSYM    DATA     BYTE      T4H
      00000098H.7 SFRSYM    DATA     BIT       SM0
      0000008AH   SFRSYM    DATA     BYTE      TL0
      00000098H.6 SFRSYM    DATA     BIT       SM1
      0000008BH   SFRSYM    DATA     BYTE      TL1
      000000D7H   SFRSYM    DATA     BYTE      T2L
      00000098H.5 SFRSYM    DATA     BIT       SM2
      000000D5H   SFRSYM    DATA     BYTE      T3L
      000000D3H   SFRSYM    DATA     BYTE      T4L
      000000B8H.1 SFRSYM    DATA     BIT       PT0
      000000D0H.3 SFRSYM    DATA     BIT       RS0
      000000B8H.3 SFRSYM    DATA     BIT       PT1
      000000D0H.4 SFRSYM    DATA     BIT       RS1
      000000C2H   SFRSYM    DATA     BYTE      IAP_DATA
      00000088H.4 SFRSYM    DATA     BIT       TR0
      00000088H.6 SFRSYM    DATA     BIT       TR1
      000000C1H   SFRSYM    DATA     BYTE      WDT_CONTR
      000000B8H   SFRSYM    DATA     BIT       PX0
      000000B8H.2 SFRSYM    DATA     BIT       PX1
      0000009FH   SFRSYM    DATA     BYTE      IRTRIM
      00000083H   SFRSYM    DATA     BYTE      DPH
      000000D1H   SFRSYM    DATA     BYTE      T4T3M
      000000BEH   SFRSYM    DATA     BYTE      ADC_RESL
      00000082H   SFRSYM    DATA     BYTE      DPL
      000000CDH   SFRSYM    DATA     BYTE      SPSTAT
      000000B7H   SFRSYM    DATA     BYTE      IPH
      0000009BH   SFRSYM    DATA     BYTE      S2BUF
      000000ADH   SFRSYM    DATA     BYTE      S3BUF
      00000098H.4 SFRSYM    DATA     BIT       REN
LX51 LINKER/LOCATER V4.41                                                             05/12/2022  17:30:48  PAGE 94


      00000085H   SFRSYM    DATA     BYTE      S4BUF
      0000009AH   SFRSYM    DATA     BYTE      S2CON
      000000E3H   SFRSYM    DATA     BYTE      DPS
      000000ACH   SFRSYM    DATA     BYTE      S3CON
      00000084H   SFRSYM    DATA     BYTE      S4CON
      000000EFH   SFRSYM    DATA     BYTE      AUXINTIF
      000000B9H   SFRSYM    DATA     BYTE      SADEN
      000000A9H   SFRSYM    DATA     BYTE      SADDR
      000000C6H   SFRSYM    DATA     BYTE      IAP_TRIG
      000000D0H.5 SFRSYM    DATA     BIT       F0
      0000009DH   SFRSYM    DATA     BYTE      IRCBAND
      000000D0H   SFRSYM    DATA     BYTE      PSW
      000000CFH   SFRSYM    DATA     BYTE      SPDAT
      00000094H   SFRSYM    DATA     BYTE      P0M0

      ---         MODULE    ---      ---       SEEKFREE_OLED
      00000093H   SFRSYM    DATA     BYTE      P0M1
      00000092H   SFRSYM    DATA     BYTE      P1M0
      00000096H   SFRSYM    DATA     BYTE      P2M0
      00000091H   SFRSYM    DATA     BYTE      P1M1
      00000080H   SFRSYM    DATA     BYTE      P0
      000000B2H   SFRSYM    DATA     BYTE      P3M0
      00000095H   SFRSYM    DATA     BYTE      P2M1
      00000090H   SFRSYM    DATA     BYTE      P1
      000000B4H   SFRSYM    DATA     BYTE      P4M0
      000000B1H   SFRSYM    DATA     BYTE      P3M1
      000000A0H   SFRSYM    DATA     BYTE      P2
      000000CAH   SFRSYM    DATA     BYTE      P5M0
      000000B3H   SFRSYM    DATA     BYTE      P4M1
      000000B0H   SFRSYM    DATA     BYTE      P3
      000000ABH   SFRSYM    DATA     BYTE      WKTCH
      000000D0H.6 SFRSYM    DATA     BIT       AC
      000000CCH   SFRSYM    DATA     BYTE      P6M0
      000000C9H   SFRSYM    DATA     BYTE      P5M1
      000000C0H   SFRSYM    DATA     BYTE      P4
      000000E2H   SFRSYM    DATA     BYTE      P7M0
      000000CBH   SFRSYM    DATA     BYTE      P6M1
      000000C8H   SFRSYM    DATA     BYTE      P5
      000000E8H   SFRSYM    DATA     BYTE      P6
      000000E1H   SFRSYM    DATA     BYTE      P7M1
      000000A8H.7 SFRSYM    DATA     BIT       EA
      000000F8H   SFRSYM    DATA     BYTE      P7
      000000AAH   SFRSYM    DATA     BYTE      WKTCL
      000000CEH   SFRSYM    DATA     BYTE      SPCTL
      000000A2H   SFRSYM    DATA     BYTE      P_SW1
      000000BAH   SFRSYM    DATA     BYTE      P_SW2
      000000E5H   SFRSYM    DATA     BYTE      DPH1
      000000A8H.5 SFRSYM    DATA     BIT       EADC
      000000A8H   SFRSYM    DATA     BYTE      IE
      000000C5H   SFRSYM    DATA     BYTE      IAP_CMD
      000000E4H   SFRSYM    DATA     BYTE      DPL1
      000000BDH   SFRSYM    DATA     BYTE      ADC_RES
      000000B6H   SFRSYM    DATA     BYTE      IP2H
      000000EEH   SFRSYM    DATA     BYTE      IP3H
      000000AEH   SFRSYM    DATA     BYTE      TA
      0000008FH   SFRSYM    DATA     BYTE      INTCLKO
      000000A8H.4 SFRSYM    DATA     BIT       ES
      000000B8H.5 SFRSYM    DATA     BIT       PADC
      000000B8H   SFRSYM    DATA     BYTE      IP
      000000DEH   SFRSYM    DATA     BYTE      ADCCFG
      00000098H   SFRSYM    DATA     BIT       RI
      000000D0H.7 SFRSYM    DATA     BIT       CY
      00000098H.1 SFRSYM    DATA     BIT       TI
      000000C3H   SFRSYM    DATA     BYTE      IAP_ADDRH
      000000B8H.4 SFRSYM    DATA     BIT       PS
LX51 LINKER/LOCATER V4.41                                                             05/12/2022  17:30:48  PAGE 95


      00000081H   SFRSYM    DATA     BYTE      SP
      000000C4H   SFRSYM    DATA     BYTE      IAP_ADDRL
      000000D0H.2 SFRSYM    DATA     BIT       OV
      000000B8H.7 SFRSYM    DATA     BIT       PPCA
      0000009EH   SFRSYM    DATA     BYTE      LIRTRIM
      000000E6H   SFRSYM    DATA     BYTE      CMPCR1
      000000E7H   SFRSYM    DATA     BYTE      CMPCR2
      000000A8H.6 SFRSYM    DATA     BIT       ELVD
      00000080H   SFRSYM    DATA     BIT       P00
      000000BCH   SFRSYM    DATA     BYTE      ADC_CONTR
      00000099H   SFRSYM    DATA     BYTE      SBUF
      00000090H   SFRSYM    DATA     BIT       P10
      00000087H   SFRSYM    DATA     BYTE      PCON
      00000080H.1 SFRSYM    DATA     BIT       P01
      000000A0H   SFRSYM    DATA     BIT       P20
      00000090H.1 SFRSYM    DATA     BIT       P11
      00000080H.2 SFRSYM    DATA     BIT       P02
      000000F5H   SFRSYM    DATA     BYTE      IAP_TPS
      000000B0H   SFRSYM    DATA     BIT       P30
      000000A0H.1 SFRSYM    DATA     BIT       P21
      00000090H.2 SFRSYM    DATA     BIT       P12
      00000080H.3 SFRSYM    DATA     BIT       P03
      000000C0H   SFRSYM    DATA     BIT       P40
      000000B0H.1 SFRSYM    DATA     BIT       P31
      000000A0H.2 SFRSYM    DATA     BIT       P22
      00000098H   SFRSYM    DATA     BYTE      SCON
      00000090H.3 SFRSYM    DATA     BIT       P13
      00000080H.4 SFRSYM    DATA     BIT       P04
      000000C8H   SFRSYM    DATA     BIT       P50
      000000C0H.1 SFRSYM    DATA     BIT       P41
      000000B0H.2 SFRSYM    DATA     BIT       P32
      000000A0H.3 SFRSYM    DATA     BIT       P23
      00000090H.4 SFRSYM    DATA     BIT       P14
      00000089H   SFRSYM    DATA     BYTE      TMOD
      00000088H   SFRSYM    DATA     BYTE      TCON
      00000080H.5 SFRSYM    DATA     BIT       P05
      000000E8H   SFRSYM    DATA     BIT       P60
      000000C8H.1 SFRSYM    DATA     BIT       P51
      000000C0H.2 SFRSYM    DATA     BIT       P42
      000000B0H.3 SFRSYM    DATA     BIT       P33
      000000A0H.4 SFRSYM    DATA     BIT       P24
      00000090H.5 SFRSYM    DATA     BIT       P15
      00000080H.6 SFRSYM    DATA     BIT       P06
      000000F8H   SFRSYM    DATA     BIT       P70
      000000E8H.1 SFRSYM    DATA     BIT       P61
      000000C8H.2 SFRSYM    DATA     BIT       P52
      000000C0H.3 SFRSYM    DATA     BIT       P43
      000000B8H.6 SFRSYM    DATA     BIT       PLVD
      000000B0H.4 SFRSYM    DATA     BIT       P34
      000000A0H.5 SFRSYM    DATA     BIT       P25
      00000090H.6 SFRSYM    DATA     BIT       P16
      00000080H.7 SFRSYM    DATA     BIT       P07
      000000F8H.1 SFRSYM    DATA     BIT       P71
      000000E8H.2 SFRSYM    DATA     BIT       P62
      000000C8H.3 SFRSYM    DATA     BIT       P53
      000000C0H.4 SFRSYM    DATA     BIT       P44
      000000B0H.5 SFRSYM    DATA     BIT       P35
      000000A0H.6 SFRSYM    DATA     BIT       P26
      00000090H.7 SFRSYM    DATA     BIT       P17
      000000F8H.2 SFRSYM    DATA     BIT       P72
      000000E8H.3 SFRSYM    DATA     BIT       P63
      000000C8H.4 SFRSYM    DATA     BIT       P54
      000000C0H.5 SFRSYM    DATA     BIT       P45
      000000B0H.6 SFRSYM    DATA     BIT       P36
      000000A0H.7 SFRSYM    DATA     BIT       P27
LX51 LINKER/LOCATER V4.41                                                             05/12/2022  17:30:48  PAGE 96


      000000F8H.3 SFRSYM    DATA     BIT       P73
      000000E8H.4 SFRSYM    DATA     BIT       P64
      000000C8H.5 SFRSYM    DATA     BIT       P55
      000000C0H.6 SFRSYM    DATA     BIT       P46
      000000B0H.7 SFRSYM    DATA     BIT       P37
      000000F8H.4 SFRSYM    DATA     BIT       P74
      000000E8H.5 SFRSYM    DATA     BIT       P65
      000000C8H.6 SFRSYM    DATA     BIT       P56
      000000C0H.7 SFRSYM    DATA     BIT       P47
      000000F8H.5 SFRSYM    DATA     BIT       P75
      000000E8H.6 SFRSYM    DATA     BIT       P66
      000000C8H.7 SFRSYM    DATA     BIT       P57
      000000F8H.6 SFRSYM    DATA     BIT       P76
      000000E8H.7 SFRSYM    DATA     BIT       P67
      000000F8H.7 SFRSYM    DATA     BIT       P77
      00000088H.1 SFRSYM    DATA     BIT       IE0
      00000088H.3 SFRSYM    DATA     BIT       IE1
      000000AFH   SFRSYM    DATA     BYTE      IE2
      000000F0H   SFRSYM    DATA     BYTE      B
      0000008EH   SFRSYM    DATA     BYTE      AUXR
      000000FCH   SFRSYM    DATA     BYTE      USBADR
      000000C7H   SFRSYM    DATA     BYTE      IAP_CONTR
      000000ECH   SFRSYM    DATA     BYTE      USBDAT
      000000DCH   SFRSYM    DATA     BYTE      USBCLK
      000000E0H   SFRSYM    DATA     BYTE      ACC
      000000A8H.1 SFRSYM    DATA     BIT       ET0
      000000A8H.3 SFRSYM    DATA     BIT       ET1
      00000088H.5 SFRSYM    DATA     BIT       TF0
      000000FFH   SFRSYM    DATA     BYTE      RSTCFG
      000000B5H   SFRSYM    DATA     BYTE      IP2
      00000088H.7 SFRSYM    DATA     BIT       TF1
      000000F4H   SFRSYM    DATA     BYTE      USBCON
      000000DFH   SFRSYM    DATA     BYTE      IP3
      00000098H.2 SFRSYM    DATA     BIT       RB8
      0000008CH   SFRSYM    DATA     BYTE      TH0
      000000A8H   SFRSYM    DATA     BIT       EX0
      0000008DH   SFRSYM    DATA     BYTE      TH1
      00000088H   SFRSYM    DATA     BIT       IT0
      000000D6H   SFRSYM    DATA     BYTE      T2H
      000000A8H.2 SFRSYM    DATA     BIT       EX1
      00000098H.3 SFRSYM    DATA     BIT       TB8
      00000088H.2 SFRSYM    DATA     BIT       IT1
      000000D4H   SFRSYM    DATA     BYTE      T3H
      000000D0H   SFRSYM    DATA     BIT       P
      000000D2H   SFRSYM    DATA     BYTE      T4H
      00000098H.7 SFRSYM    DATA     BIT       SM0
      0000008AH   SFRSYM    DATA     BYTE      TL0
      00000098H.6 SFRSYM    DATA     BIT       SM1
      0000008BH   SFRSYM    DATA     BYTE      TL1
      000000D7H   SFRSYM    DATA     BYTE      T2L
      00000098H.5 SFRSYM    DATA     BIT       SM2
      000000D5H   SFRSYM    DATA     BYTE      T3L
      000000D3H   SFRSYM    DATA     BYTE      T4L
      000000B8H.1 SFRSYM    DATA     BIT       PT0
      000000D0H.3 SFRSYM    DATA     BIT       RS0
      000000B8H.3 SFRSYM    DATA     BIT       PT1
      000000D0H.4 SFRSYM    DATA     BIT       RS1
      000000C2H   SFRSYM    DATA     BYTE      IAP_DATA
      00000088H.4 SFRSYM    DATA     BIT       TR0
      00000088H.6 SFRSYM    DATA     BIT       TR1
      000000C1H   SFRSYM    DATA     BYTE      WDT_CONTR
      000000B8H   SFRSYM    DATA     BIT       PX0
      000000B8H.2 SFRSYM    DATA     BIT       PX1
      0000009FH   SFRSYM    DATA     BYTE      IRTRIM
      00000083H   SFRSYM    DATA     BYTE      DPH
LX51 LINKER/LOCATER V4.41                                                             05/12/2022  17:30:48  PAGE 97


      000000D1H   SFRSYM    DATA     BYTE      T4T3M
      000000BEH   SFRSYM    DATA     BYTE      ADC_RESL
      00000082H   SFRSYM    DATA     BYTE      DPL
      000000CDH   SFRSYM    DATA     BYTE      SPSTAT
      000000B7H   SFRSYM    DATA     BYTE      IPH
      0000009BH   SFRSYM    DATA     BYTE      S2BUF
      000000ADH   SFRSYM    DATA     BYTE      S3BUF
      00000098H.4 SFRSYM    DATA     BIT       REN
      00000085H   SFRSYM    DATA     BYTE      S4BUF
      0000009AH   SFRSYM    DATA     BYTE      S2CON
      000000E3H   SFRSYM    DATA     BYTE      DPS
      000000ACH   SFRSYM    DATA     BYTE      S3CON
      00000084H   SFRSYM    DATA     BYTE      S4CON
      000000EFH   SFRSYM    DATA     BYTE      AUXINTIF
      000000B9H   SFRSYM    DATA     BYTE      SADEN
      000000A9H   SFRSYM    DATA     BYTE      SADDR
      000000C6H   SFRSYM    DATA     BYTE      IAP_TRIG
      000000D0H.5 SFRSYM    DATA     BIT       F0
      0000009DH   SFRSYM    DATA     BYTE      IRCBAND
      000000D0H   SFRSYM    DATA     BYTE      PSW
      000000CFH   SFRSYM    DATA     BYTE      SPDAT
      00000094H   SFRSYM    DATA     BYTE      P0M0
      00000007H   SYMBOL    DATA     BYTE      dat
      00000006H   SYMBOL    DATA     BYTE      i
      00000006H   SYMBOL    DATA     BYTE      i
      00000007H   SYMBOL    DATA     BYTE      cmd
      00000006H   SYMBOL    DATA     BYTE      i
      00000006H   SYMBOL    DATA     BYTE      i
      00000004H   SYMBOL    DATA     BYTE      x
      00000005H   SYMBOL    DATA     BYTE      y
      00000004H   SYMBOL    DATA     BYTE      bmp_data
      00000003H   SYMBOL    DATA     BYTE      y
      00000002H   SYMBOL    DATA     BYTE      x
      00000002H   SYMBOL    DATA     BYTE      x
      00000001H   SYMBOL    DATA     BYTE      y
      00000003H   SYMBOL    DATA     BYTE      data1
      00000003H   SYMBOL    DATA     BYTE      x
      00000002H   SYMBOL    DATA     BYTE      y
      00000004H   SYMBOL    DATA     BYTE      i
      00000004H   SYMBOL    DATA     BYTE      i
      00000002H   SYMBOL    DATA     WORD      num
      00000005H   SYMBOL    DATA     CHAR      point
      00000004H   SYMBOL    DATA     BYTE      y
      00000003H   SYMBOL    DATA     BYTE      x
      00000007H   SYMBOL    DATA     BYTE      dat
      00000007H   SYMBOL    DATA     BYTE      cmd
      00000005H   SYMBOL    DATA     BYTE      y
      00000002H   SYMBOL    DATA     WORD      num
      00000005H   SYMBOL    DATA     CHAR      point
      00000002H   SYMBOL    DATA     WORD      num
      00000007H   SYMBOL    DATA     BYTE      i
      00000004H   SYMBOL    DATA     BYTE      i

      ---         MODULE    ---      ---       SEEKFREE_ABSOLUTE_ENCODER
      00000093H   SFRSYM    DATA     BYTE      P0M1
      00000092H   SFRSYM    DATA     BYTE      P1M0
      00000096H   SFRSYM    DATA     BYTE      P2M0
      00000091H   SFRSYM    DATA     BYTE      P1M1
      00000080H   SFRSYM    DATA     BYTE      P0
      000000B2H   SFRSYM    DATA     BYTE      P3M0
      00000095H   SFRSYM    DATA     BYTE      P2M1
      00000090H   SFRSYM    DATA     BYTE      P1
      000000B4H   SFRSYM    DATA     BYTE      P4M0
      000000B1H   SFRSYM    DATA     BYTE      P3M1
      000000A0H   SFRSYM    DATA     BYTE      P2
LX51 LINKER/LOCATER V4.41                                                             05/12/2022  17:30:48  PAGE 98


      000000CAH   SFRSYM    DATA     BYTE      P5M0
      000000B3H   SFRSYM    DATA     BYTE      P4M1
      000000B0H   SFRSYM    DATA     BYTE      P3
      000000ABH   SFRSYM    DATA     BYTE      WKTCH
      000000D0H.6 SFRSYM    DATA     BIT       AC
      000000CCH   SFRSYM    DATA     BYTE      P6M0
      000000C9H   SFRSYM    DATA     BYTE      P5M1
      000000C0H   SFRSYM    DATA     BYTE      P4
      000000E2H   SFRSYM    DATA     BYTE      P7M0
      000000CBH   SFRSYM    DATA     BYTE      P6M1
      000000C8H   SFRSYM    DATA     BYTE      P5
      000000E8H   SFRSYM    DATA     BYTE      P6
      000000E1H   SFRSYM    DATA     BYTE      P7M1
      000000A8H.7 SFRSYM    DATA     BIT       EA
      000000F8H   SFRSYM    DATA     BYTE      P7
      000000AAH   SFRSYM    DATA     BYTE      WKTCL
      000000CEH   SFRSYM    DATA     BYTE      SPCTL
      000000A2H   SFRSYM    DATA     BYTE      P_SW1
      000000BAH   SFRSYM    DATA     BYTE      P_SW2
      000000E5H   SFRSYM    DATA     BYTE      DPH1
      000000A8H.5 SFRSYM    DATA     BIT       EADC
      000000A8H   SFRSYM    DATA     BYTE      IE
      000000C5H   SFRSYM    DATA     BYTE      IAP_CMD
      000000E4H   SFRSYM    DATA     BYTE      DPL1
      000000BDH   SFRSYM    DATA     BYTE      ADC_RES
      000000B6H   SFRSYM    DATA     BYTE      IP2H
      000000EEH   SFRSYM    DATA     BYTE      IP3H
      000000AEH   SFRSYM    DATA     BYTE      TA
      0000008FH   SFRSYM    DATA     BYTE      INTCLKO
      000000A8H.4 SFRSYM    DATA     BIT       ES
      000000B8H.5 SFRSYM    DATA     BIT       PADC
      000000B8H   SFRSYM    DATA     BYTE      IP
      000000DEH   SFRSYM    DATA     BYTE      ADCCFG
      00000098H   SFRSYM    DATA     BIT       RI
      000000D0H.7 SFRSYM    DATA     BIT       CY
      00000098H.1 SFRSYM    DATA     BIT       TI
      000000C3H   SFRSYM    DATA     BYTE      IAP_ADDRH
      000000B8H.4 SFRSYM    DATA     BIT       PS
      00000081H   SFRSYM    DATA     BYTE      SP
      000000C4H   SFRSYM    DATA     BYTE      IAP_ADDRL
      000000D0H.2 SFRSYM    DATA     BIT       OV
      000000B8H.7 SFRSYM    DATA     BIT       PPCA
      0000009EH   SFRSYM    DATA     BYTE      LIRTRIM
      000000E6H   SFRSYM    DATA     BYTE      CMPCR1
      000000E7H   SFRSYM    DATA     BYTE      CMPCR2
      000000A8H.6 SFRSYM    DATA     BIT       ELVD
      00000080H   SFRSYM    DATA     BIT       P00
      000000BCH   SFRSYM    DATA     BYTE      ADC_CONTR
      00000099H   SFRSYM    DATA     BYTE      SBUF
      00000090H   SFRSYM    DATA     BIT       P10
      00000087H   SFRSYM    DATA     BYTE      PCON
      00000080H.1 SFRSYM    DATA     BIT       P01
      000000A0H   SFRSYM    DATA     BIT       P20
      00000090H.1 SFRSYM    DATA     BIT       P11
      00000080H.2 SFRSYM    DATA     BIT       P02
      000000F5H   SFRSYM    DATA     BYTE      IAP_TPS
      000000B0H   SFRSYM    DATA     BIT       P30
      000000A0H.1 SFRSYM    DATA     BIT       P21
      00000090H.2 SFRSYM    DATA     BIT       P12
      00000080H.3 SFRSYM    DATA     BIT       P03
      000000C0H   SFRSYM    DATA     BIT       P40
      000000B0H.1 SFRSYM    DATA     BIT       P31
      000000A0H.2 SFRSYM    DATA     BIT       P22
      00000098H   SFRSYM    DATA     BYTE      SCON
      00000090H.3 SFRSYM    DATA     BIT       P13
LX51 LINKER/LOCATER V4.41                                                             05/12/2022  17:30:48  PAGE 99


      00000080H.4 SFRSYM    DATA     BIT       P04
      000000C8H   SFRSYM    DATA     BIT       P50
      000000C0H.1 SFRSYM    DATA     BIT       P41
      000000B0H.2 SFRSYM    DATA     BIT       P32
      000000A0H.3 SFRSYM    DATA     BIT       P23
      00000090H.4 SFRSYM    DATA     BIT       P14
      00000089H   SFRSYM    DATA     BYTE      TMOD
      00000088H   SFRSYM    DATA     BYTE      TCON
      00000080H.5 SFRSYM    DATA     BIT       P05
      000000E8H   SFRSYM    DATA     BIT       P60
      000000C8H.1 SFRSYM    DATA     BIT       P51
      000000C0H.2 SFRSYM    DATA     BIT       P42
      000000B0H.3 SFRSYM    DATA     BIT       P33
      000000A0H.4 SFRSYM    DATA     BIT       P24
      00000090H.5 SFRSYM    DATA     BIT       P15
      00000080H.6 SFRSYM    DATA     BIT       P06
      000000F8H   SFRSYM    DATA     BIT       P70
      000000E8H.1 SFRSYM    DATA     BIT       P61
      000000C8H.2 SFRSYM    DATA     BIT       P52
      000000C0H.3 SFRSYM    DATA     BIT       P43
      000000B8H.6 SFRSYM    DATA     BIT       PLVD
      000000B0H.4 SFRSYM    DATA     BIT       P34
      000000A0H.5 SFRSYM    DATA     BIT       P25
      00000090H.6 SFRSYM    DATA     BIT       P16
      00000080H.7 SFRSYM    DATA     BIT       P07
      000000F8H.1 SFRSYM    DATA     BIT       P71
      000000E8H.2 SFRSYM    DATA     BIT       P62
      000000C8H.3 SFRSYM    DATA     BIT       P53
      000000C0H.4 SFRSYM    DATA     BIT       P44
      000000B0H.5 SFRSYM    DATA     BIT       P35
      000000A0H.6 SFRSYM    DATA     BIT       P26
      00000090H.7 SFRSYM    DATA     BIT       P17
      000000F8H.2 SFRSYM    DATA     BIT       P72
      000000E8H.3 SFRSYM    DATA     BIT       P63
      000000C8H.4 SFRSYM    DATA     BIT       P54
      000000C0H.5 SFRSYM    DATA     BIT       P45
      000000B0H.6 SFRSYM    DATA     BIT       P36
      000000A0H.7 SFRSYM    DATA     BIT       P27
      000000F8H.3 SFRSYM    DATA     BIT       P73
      000000E8H.4 SFRSYM    DATA     BIT       P64
      000000C8H.5 SFRSYM    DATA     BIT       P55
      000000C0H.6 SFRSYM    DATA     BIT       P46
      000000B0H.7 SFRSYM    DATA     BIT       P37
      000000F8H.4 SFRSYM    DATA     BIT       P74
      000000E8H.5 SFRSYM    DATA     BIT       P65
      000000C8H.6 SFRSYM    DATA     BIT       P56
      000000C0H.7 SFRSYM    DATA     BIT       P47
      000000F8H.5 SFRSYM    DATA     BIT       P75
      000000E8H.6 SFRSYM    DATA     BIT       P66
      000000C8H.7 SFRSYM    DATA     BIT       P57
      000000F8H.6 SFRSYM    DATA     BIT       P76
      000000E8H.7 SFRSYM    DATA     BIT       P67
      000000F8H.7 SFRSYM    DATA     BIT       P77
      00000088H.1 SFRSYM    DATA     BIT       IE0
      00000088H.3 SFRSYM    DATA     BIT       IE1
      000000AFH   SFRSYM    DATA     BYTE      IE2
      000000F0H   SFRSYM    DATA     BYTE      B
      0000008EH   SFRSYM    DATA     BYTE      AUXR
      000000FCH   SFRSYM    DATA     BYTE      USBADR
      000000C7H   SFRSYM    DATA     BYTE      IAP_CONTR
      000000ECH   SFRSYM    DATA     BYTE      USBDAT
      000000DCH   SFRSYM    DATA     BYTE      USBCLK
      000000E0H   SFRSYM    DATA     BYTE      ACC
      000000A8H.1 SFRSYM    DATA     BIT       ET0
      000000A8H.3 SFRSYM    DATA     BIT       ET1
LX51 LINKER/LOCATER V4.41                                                             05/12/2022  17:30:48  PAGE 100


      00000088H.5 SFRSYM    DATA     BIT       TF0
      000000FFH   SFRSYM    DATA     BYTE      RSTCFG
      000000B5H   SFRSYM    DATA     BYTE      IP2
      00000088H.7 SFRSYM    DATA     BIT       TF1
      000000F4H   SFRSYM    DATA     BYTE      USBCON
      000000DFH   SFRSYM    DATA     BYTE      IP3
      00000098H.2 SFRSYM    DATA     BIT       RB8
      0000008CH   SFRSYM    DATA     BYTE      TH0
      000000A8H   SFRSYM    DATA     BIT       EX0
      0000008DH   SFRSYM    DATA     BYTE      TH1
      00000088H   SFRSYM    DATA     BIT       IT0
      000000D6H   SFRSYM    DATA     BYTE      T2H
      000000A8H.2 SFRSYM    DATA     BIT       EX1
      00000098H.3 SFRSYM    DATA     BIT       TB8
      00000088H.2 SFRSYM    DATA     BIT       IT1
      000000D4H   SFRSYM    DATA     BYTE      T3H
      000000D0H   SFRSYM    DATA     BIT       P
      000000D2H   SFRSYM    DATA     BYTE      T4H
      00000098H.7 SFRSYM    DATA     BIT       SM0
      0000008AH   SFRSYM    DATA     BYTE      TL0
      00000098H.6 SFRSYM    DATA     BIT       SM1
      0000008BH   SFRSYM    DATA     BYTE      TL1
      000000D7H   SFRSYM    DATA     BYTE      T2L
      00000098H.5 SFRSYM    DATA     BIT       SM2
      000000D5H   SFRSYM    DATA     BYTE      T3L
      000000D3H   SFRSYM    DATA     BYTE      T4L
      000000B8H.1 SFRSYM    DATA     BIT       PT0
      000000D0H.3 SFRSYM    DATA     BIT       RS0
      000000B8H.3 SFRSYM    DATA     BIT       PT1
      000000D0H.4 SFRSYM    DATA     BIT       RS1
      000000C2H   SFRSYM    DATA     BYTE      IAP_DATA
      00000088H.4 SFRSYM    DATA     BIT       TR0
      00000088H.6 SFRSYM    DATA     BIT       TR1
      000000C1H   SFRSYM    DATA     BYTE      WDT_CONTR
      000000B8H   SFRSYM    DATA     BIT       PX0
      000000B8H.2 SFRSYM    DATA     BIT       PX1
      0000009FH   SFRSYM    DATA     BYTE      IRTRIM
      00000083H   SFRSYM    DATA     BYTE      DPH
      000000D1H   SFRSYM    DATA     BYTE      T4T3M
      000000BEH   SFRSYM    DATA     BYTE      ADC_RESL
      00000082H   SFRSYM    DATA     BYTE      DPL
      000000CDH   SFRSYM    DATA     BYTE      SPSTAT
      000000B7H   SFRSYM    DATA     BYTE      IPH
      0000009BH   SFRSYM    DATA     BYTE      S2BUF
      000000ADH   SFRSYM    DATA     BYTE      S3BUF
      00000098H.4 SFRSYM    DATA     BIT       REN
      00000085H   SFRSYM    DATA     BYTE      S4BUF
      0000009AH   SFRSYM    DATA     BYTE      S2CON
      000000E3H   SFRSYM    DATA     BYTE      DPS
      000000ACH   SFRSYM    DATA     BYTE      S3CON
      00000084H   SFRSYM    DATA     BYTE      S4CON
      000000EFH   SFRSYM    DATA     BYTE      AUXINTIF
      000000B9H   SFRSYM    DATA     BYTE      SADEN
      000000A9H   SFRSYM    DATA     BYTE      SADDR
      000000C6H   SFRSYM    DATA     BYTE      IAP_TRIG
      000000D0H.5 SFRSYM    DATA     BIT       F0
      0000009DH   SFRSYM    DATA     BYTE      IRCBAND
      000000D0H   SFRSYM    DATA     BYTE      PSW
      000000CFH   SFRSYM    DATA     BYTE      SPDAT
      00000094H   SFRSYM    DATA     BYTE      P0M0
      00000006H   SYMBOL    DATA     WORD      x
      00000007H   SYMBOL    DATA     BYTE      byte
      00000006H   SYMBOL    DATA     BYTE      i
      00000006H   SYMBOL    DATA     BYTE      i
      00000007H   SYMBOL    DATA     BYTE      cmd
LX51 LINKER/LOCATER V4.41                                                             05/12/2022  17:30:48  PAGE 101


      00000005H   SYMBOL    DATA     BYTE      val
      00000007H   SYMBOL    DATA     BYTE      cmd
      00000001H   SYMBOL    DATA     ---       val
      00000007H   SYMBOL    DATA     BYTE      cmd
      00000005H   SYMBOL    DATA     BYTE      dat
      00000007H   SYMBOL    DATA     BYTE      cmd
      00000004H   SYMBOL    DATA     WORD      angle
      00000007H   SYMBOL    DATA     BYTE      byte
      00000007H   SYMBOL    DATA     BYTE      cmd
      00000007H   SYMBOL    DATA     BYTE      cmd
      00000007H   SYMBOL    DATA     BYTE      cmd
      00000007H   SYMBOL    DATA     BYTE      cmd

      ---         MODULE    ---      ---       SEEKFREE_WIRELESS
      00000093H   SFRSYM    DATA     BYTE      P0M1
      00000092H   SFRSYM    DATA     BYTE      P1M0
      00000096H   SFRSYM    DATA     BYTE      P2M0
      00000091H   SFRSYM    DATA     BYTE      P1M1
      00000080H   SFRSYM    DATA     BYTE      P0
      000000B2H   SFRSYM    DATA     BYTE      P3M0
      00000095H   SFRSYM    DATA     BYTE      P2M1
      00000090H   SFRSYM    DATA     BYTE      P1
      000000B4H   SFRSYM    DATA     BYTE      P4M0
      000000B1H   SFRSYM    DATA     BYTE      P3M1
      000000A0H   SFRSYM    DATA     BYTE      P2
      000000CAH   SFRSYM    DATA     BYTE      P5M0
      000000B3H   SFRSYM    DATA     BYTE      P4M1
      000000B0H   SFRSYM    DATA     BYTE      P3
      000000ABH   SFRSYM    DATA     BYTE      WKTCH
      000000D0H.6 SFRSYM    DATA     BIT       AC
      000000CCH   SFRSYM    DATA     BYTE      P6M0
      000000C9H   SFRSYM    DATA     BYTE      P5M1
      000000C0H   SFRSYM    DATA     BYTE      P4
      000000E2H   SFRSYM    DATA     BYTE      P7M0
      000000CBH   SFRSYM    DATA     BYTE      P6M1
      000000C8H   SFRSYM    DATA     BYTE      P5
      000000E8H   SFRSYM    DATA     BYTE      P6
      000000E1H   SFRSYM    DATA     BYTE      P7M1
      000000A8H.7 SFRSYM    DATA     BIT       EA
      000000F8H   SFRSYM    DATA     BYTE      P7
      000000AAH   SFRSYM    DATA     BYTE      WKTCL
      000000CEH   SFRSYM    DATA     BYTE      SPCTL
      000000A2H   SFRSYM    DATA     BYTE      P_SW1
      000000BAH   SFRSYM    DATA     BYTE      P_SW2
      000000E5H   SFRSYM    DATA     BYTE      DPH1
      000000A8H.5 SFRSYM    DATA     BIT       EADC
      000000A8H   SFRSYM    DATA     BYTE      IE
      000000C5H   SFRSYM    DATA     BYTE      IAP_CMD
      000000E4H   SFRSYM    DATA     BYTE      DPL1
      000000BDH   SFRSYM    DATA     BYTE      ADC_RES
      000000B6H   SFRSYM    DATA     BYTE      IP2H
      000000EEH   SFRSYM    DATA     BYTE      IP3H
      000000AEH   SFRSYM    DATA     BYTE      TA
      0000008FH   SFRSYM    DATA     BYTE      INTCLKO
      000000A8H.4 SFRSYM    DATA     BIT       ES
      000000B8H.5 SFRSYM    DATA     BIT       PADC
      000000B8H   SFRSYM    DATA     BYTE      IP
      000000DEH   SFRSYM    DATA     BYTE      ADCCFG
      00000098H   SFRSYM    DATA     BIT       RI
      000000D0H.7 SFRSYM    DATA     BIT       CY
      00000098H.1 SFRSYM    DATA     BIT       TI
      000000C3H   SFRSYM    DATA     BYTE      IAP_ADDRH
      000000B8H.4 SFRSYM    DATA     BIT       PS
      00000081H   SFRSYM    DATA     BYTE      SP
      000000C4H   SFRSYM    DATA     BYTE      IAP_ADDRL
LX51 LINKER/LOCATER V4.41                                                             05/12/2022  17:30:48  PAGE 102


      000000D0H.2 SFRSYM    DATA     BIT       OV
      000000B8H.7 SFRSYM    DATA     BIT       PPCA
      0000009EH   SFRSYM    DATA     BYTE      LIRTRIM
      000000E6H   SFRSYM    DATA     BYTE      CMPCR1
      000000E7H   SFRSYM    DATA     BYTE      CMPCR2
      000000A8H.6 SFRSYM    DATA     BIT       ELVD
      00000080H   SFRSYM    DATA     BIT       P00
      000000BCH   SFRSYM    DATA     BYTE      ADC_CONTR
      00000099H   SFRSYM    DATA     BYTE      SBUF
      00000090H   SFRSYM    DATA     BIT       P10
      00000087H   SFRSYM    DATA     BYTE      PCON
      00000080H.1 SFRSYM    DATA     BIT       P01
      000000A0H   SFRSYM    DATA     BIT       P20
      00000090H.1 SFRSYM    DATA     BIT       P11
      00000080H.2 SFRSYM    DATA     BIT       P02
      000000F5H   SFRSYM    DATA     BYTE      IAP_TPS
      000000B0H   SFRSYM    DATA     BIT       P30
      000000A0H.1 SFRSYM    DATA     BIT       P21
      00000090H.2 SFRSYM    DATA     BIT       P12
      00000080H.3 SFRSYM    DATA     BIT       P03
      000000C0H   SFRSYM    DATA     BIT       P40
      000000B0H.1 SFRSYM    DATA     BIT       P31
      000000A0H.2 SFRSYM    DATA     BIT       P22
      00000098H   SFRSYM    DATA     BYTE      SCON
      00000090H.3 SFRSYM    DATA     BIT       P13
      00000080H.4 SFRSYM    DATA     BIT       P04
      000000C8H   SFRSYM    DATA     BIT       P50
      000000C0H.1 SFRSYM    DATA     BIT       P41
      000000B0H.2 SFRSYM    DATA     BIT       P32
      000000A0H.3 SFRSYM    DATA     BIT       P23
      00000090H.4 SFRSYM    DATA     BIT       P14
      00000089H   SFRSYM    DATA     BYTE      TMOD
      00000088H   SFRSYM    DATA     BYTE      TCON
      00000080H.5 SFRSYM    DATA     BIT       P05
      000000E8H   SFRSYM    DATA     BIT       P60
      000000C8H.1 SFRSYM    DATA     BIT       P51
      000000C0H.2 SFRSYM    DATA     BIT       P42
      000000B0H.3 SFRSYM    DATA     BIT       P33
      000000A0H.4 SFRSYM    DATA     BIT       P24
      00000090H.5 SFRSYM    DATA     BIT       P15
      00000080H.6 SFRSYM    DATA     BIT       P06
      000000F8H   SFRSYM    DATA     BIT       P70
      000000E8H.1 SFRSYM    DATA     BIT       P61
      000000C8H.2 SFRSYM    DATA     BIT       P52
      000000C0H.3 SFRSYM    DATA     BIT       P43
      000000B8H.6 SFRSYM    DATA     BIT       PLVD
      000000B0H.4 SFRSYM    DATA     BIT       P34
      000000A0H.5 SFRSYM    DATA     BIT       P25
      00000090H.6 SFRSYM    DATA     BIT       P16
      00000080H.7 SFRSYM    DATA     BIT       P07
      000000F8H.1 SFRSYM    DATA     BIT       P71
      000000E8H.2 SFRSYM    DATA     BIT       P62
      000000C8H.3 SFRSYM    DATA     BIT       P53
      000000C0H.4 SFRSYM    DATA     BIT       P44
      000000B0H.5 SFRSYM    DATA     BIT       P35
      000000A0H.6 SFRSYM    DATA     BIT       P26
      00000090H.7 SFRSYM    DATA     BIT       P17
      000000F8H.2 SFRSYM    DATA     BIT       P72
      000000E8H.3 SFRSYM    DATA     BIT       P63
      000000C8H.4 SFRSYM    DATA     BIT       P54
      000000C0H.5 SFRSYM    DATA     BIT       P45
      000000B0H.6 SFRSYM    DATA     BIT       P36
      000000A0H.7 SFRSYM    DATA     BIT       P27
      000000F8H.3 SFRSYM    DATA     BIT       P73
      000000E8H.4 SFRSYM    DATA     BIT       P64
LX51 LINKER/LOCATER V4.41                                                             05/12/2022  17:30:48  PAGE 103


      000000C8H.5 SFRSYM    DATA     BIT       P55
      000000C0H.6 SFRSYM    DATA     BIT       P46
      000000B0H.7 SFRSYM    DATA     BIT       P37
      000000F8H.4 SFRSYM    DATA     BIT       P74
      000000E8H.5 SFRSYM    DATA     BIT       P65
      000000C8H.6 SFRSYM    DATA     BIT       P56
      000000C0H.7 SFRSYM    DATA     BIT       P47
      000000F8H.5 SFRSYM    DATA     BIT       P75
      000000E8H.6 SFRSYM    DATA     BIT       P66
      000000C8H.7 SFRSYM    DATA     BIT       P57
      000000F8H.6 SFRSYM    DATA     BIT       P76
      000000E8H.7 SFRSYM    DATA     BIT       P67
      000000F8H.7 SFRSYM    DATA     BIT       P77
      00000088H.1 SFRSYM    DATA     BIT       IE0
      00000088H.3 SFRSYM    DATA     BIT       IE1
      000000AFH   SFRSYM    DATA     BYTE      IE2
      000000F0H   SFRSYM    DATA     BYTE      B
      0000008EH   SFRSYM    DATA     BYTE      AUXR
      000000FCH   SFRSYM    DATA     BYTE      USBADR
      000000C7H   SFRSYM    DATA     BYTE      IAP_CONTR
      000000ECH   SFRSYM    DATA     BYTE      USBDAT
      000000DCH   SFRSYM    DATA     BYTE      USBCLK
      000000E0H   SFRSYM    DATA     BYTE      ACC
      000000A8H.1 SFRSYM    DATA     BIT       ET0
      000000A8H.3 SFRSYM    DATA     BIT       ET1
      00000088H.5 SFRSYM    DATA     BIT       TF0
      000000FFH   SFRSYM    DATA     BYTE      RSTCFG
      000000B5H   SFRSYM    DATA     BYTE      IP2
      00000088H.7 SFRSYM    DATA     BIT       TF1
      000000F4H   SFRSYM    DATA     BYTE      USBCON
      000000DFH   SFRSYM    DATA     BYTE      IP3
      00000098H.2 SFRSYM    DATA     BIT       RB8
      0000008CH   SFRSYM    DATA     BYTE      TH0
      000000A8H   SFRSYM    DATA     BIT       EX0
      0000008DH   SFRSYM    DATA     BYTE      TH1
      00000088H   SFRSYM    DATA     BIT       IT0
      000000D6H   SFRSYM    DATA     BYTE      T2H
      000000A8H.2 SFRSYM    DATA     BIT       EX1
      00000098H.3 SFRSYM    DATA     BIT       TB8
      00000088H.2 SFRSYM    DATA     BIT       IT1
      000000D4H   SFRSYM    DATA     BYTE      T3H
      000000D0H   SFRSYM    DATA     BIT       P
      000000D2H   SFRSYM    DATA     BYTE      T4H
      00000098H.7 SFRSYM    DATA     BIT       SM0
      0000008AH   SFRSYM    DATA     BYTE      TL0
      00000098H.6 SFRSYM    DATA     BIT       SM1
      0000008BH   SFRSYM    DATA     BYTE      TL1
      000000D7H   SFRSYM    DATA     BYTE      T2L
      00000098H.5 SFRSYM    DATA     BIT       SM2
      000000D5H   SFRSYM    DATA     BYTE      T3L
      000000D3H   SFRSYM    DATA     BYTE      T4L
      000000B8H.1 SFRSYM    DATA     BIT       PT0
      000000D0H.3 SFRSYM    DATA     BIT       RS0
      000000B8H.3 SFRSYM    DATA     BIT       PT1
      000000D0H.4 SFRSYM    DATA     BIT       RS1
      000000C2H   SFRSYM    DATA     BYTE      IAP_DATA
      00000088H.4 SFRSYM    DATA     BIT       TR0
      00000088H.6 SFRSYM    DATA     BIT       TR1
      000000C1H   SFRSYM    DATA     BYTE      WDT_CONTR
      000000B8H   SFRSYM    DATA     BIT       PX0
      000000B8H.2 SFRSYM    DATA     BIT       PX1
      0000009FH   SFRSYM    DATA     BYTE      IRTRIM
      00000083H   SFRSYM    DATA     BYTE      DPH
      000000D1H   SFRSYM    DATA     BYTE      T4T3M
      000000BEH   SFRSYM    DATA     BYTE      ADC_RESL
LX51 LINKER/LOCATER V4.41                                                             05/12/2022  17:30:48  PAGE 104


      00000082H   SFRSYM    DATA     BYTE      DPL
      000000CDH   SFRSYM    DATA     BYTE      SPSTAT
      000000B7H   SFRSYM    DATA     BYTE      IPH
      0000009BH   SFRSYM    DATA     BYTE      S2BUF
      000000ADH   SFRSYM    DATA     BYTE      S3BUF
      00000098H.4 SFRSYM    DATA     BIT       REN
      00000085H   SFRSYM    DATA     BYTE      S4BUF
      0000009AH   SFRSYM    DATA     BYTE      S2CON
      000000E3H   SFRSYM    DATA     BYTE      DPS
      000000ACH   SFRSYM    DATA     BYTE      S3CON
      00000084H   SFRSYM    DATA     BYTE      S4CON
      000000EFH   SFRSYM    DATA     BYTE      AUXINTIF
      000000B9H   SFRSYM    DATA     BYTE      SADEN
      000000A9H   SFRSYM    DATA     BYTE      SADDR
      000000C6H   SFRSYM    DATA     BYTE      IAP_TRIG
      000000D0H.5 SFRSYM    DATA     BIT       F0
      0000009DH   SFRSYM    DATA     BYTE      IRCBAND
      000000D0H   SFRSYM    DATA     BYTE      PSW
      000000CFH   SFRSYM    DATA     BYTE      SPDAT
      00000094H   SFRSYM    DATA     BYTE      P0M0

      ---         MODULE    ---      ---       SEEKFREE_VIRSCO
      0200021BH   PUBLIC    XDATA    ---       virtual_scope_data
      00000093H   SFRSYM    DATA     BYTE      P0M1
      00000092H   SFRSYM    DATA     BYTE      P1M0
      00000096H   SFRSYM    DATA     BYTE      P2M0
      00000091H   SFRSYM    DATA     BYTE      P1M1
      00000080H   SFRSYM    DATA     BYTE      P0
      000000B2H   SFRSYM    DATA     BYTE      P3M0
      00000095H   SFRSYM    DATA     BYTE      P2M1
      00000090H   SFRSYM    DATA     BYTE      P1
      000000B4H   SFRSYM    DATA     BYTE      P4M0
      000000B1H   SFRSYM    DATA     BYTE      P3M1
      000000A0H   SFRSYM    DATA     BYTE      P2
      000000CAH   SFRSYM    DATA     BYTE      P5M0
      000000B3H   SFRSYM    DATA     BYTE      P4M1
      000000B0H   SFRSYM    DATA     BYTE      P3
      000000ABH   SFRSYM    DATA     BYTE      WKTCH
      000000D0H.6 SFRSYM    DATA     BIT       AC
      000000CCH   SFRSYM    DATA     BYTE      P6M0
      000000C9H   SFRSYM    DATA     BYTE      P5M1
      000000C0H   SFRSYM    DATA     BYTE      P4
      000000E2H   SFRSYM    DATA     BYTE      P7M0
      000000CBH   SFRSYM    DATA     BYTE      P6M1
      000000C8H   SFRSYM    DATA     BYTE      P5
      000000E8H   SFRSYM    DATA     BYTE      P6
      000000E1H   SFRSYM    DATA     BYTE      P7M1
      000000A8H.7 SFRSYM    DATA     BIT       EA
      000000F8H   SFRSYM    DATA     BYTE      P7
      000000AAH   SFRSYM    DATA     BYTE      WKTCL
      000000CEH   SFRSYM    DATA     BYTE      SPCTL
      000000A2H   SFRSYM    DATA     BYTE      P_SW1
      000000BAH   SFRSYM    DATA     BYTE      P_SW2
      000000E5H   SFRSYM    DATA     BYTE      DPH1
      000000A8H.5 SFRSYM    DATA     BIT       EADC
      000000A8H   SFRSYM    DATA     BYTE      IE
      000000C5H   SFRSYM    DATA     BYTE      IAP_CMD
      000000E4H   SFRSYM    DATA     BYTE      DPL1
      000000BDH   SFRSYM    DATA     BYTE      ADC_RES
      000000B6H   SFRSYM    DATA     BYTE      IP2H
      000000EEH   SFRSYM    DATA     BYTE      IP3H
      000000AEH   SFRSYM    DATA     BYTE      TA
      0000008FH   SFRSYM    DATA     BYTE      INTCLKO
      000000A8H.4 SFRSYM    DATA     BIT       ES
      000000B8H.5 SFRSYM    DATA     BIT       PADC
LX51 LINKER/LOCATER V4.41                                                             05/12/2022  17:30:48  PAGE 105


      000000B8H   SFRSYM    DATA     BYTE      IP
      000000DEH   SFRSYM    DATA     BYTE      ADCCFG
      00000098H   SFRSYM    DATA     BIT       RI
      000000D0H.7 SFRSYM    DATA     BIT       CY
      00000098H.1 SFRSYM    DATA     BIT       TI
      000000C3H   SFRSYM    DATA     BYTE      IAP_ADDRH
      000000B8H.4 SFRSYM    DATA     BIT       PS
      00000081H   SFRSYM    DATA     BYTE      SP
      000000C4H   SFRSYM    DATA     BYTE      IAP_ADDRL
      000000D0H.2 SFRSYM    DATA     BIT       OV
      000000B8H.7 SFRSYM    DATA     BIT       PPCA
      0000009EH   SFRSYM    DATA     BYTE      LIRTRIM
      000000E6H   SFRSYM    DATA     BYTE      CMPCR1
      000000E7H   SFRSYM    DATA     BYTE      CMPCR2
      000000A8H.6 SFRSYM    DATA     BIT       ELVD
      00000080H   SFRSYM    DATA     BIT       P00
      000000BCH   SFRSYM    DATA     BYTE      ADC_CONTR
      00000099H   SFRSYM    DATA     BYTE      SBUF
      00000090H   SFRSYM    DATA     BIT       P10
      00000087H   SFRSYM    DATA     BYTE      PCON
      00000080H.1 SFRSYM    DATA     BIT       P01
      000000A0H   SFRSYM    DATA     BIT       P20
      00000090H.1 SFRSYM    DATA     BIT       P11
      00000080H.2 SFRSYM    DATA     BIT       P02
      000000F5H   SFRSYM    DATA     BYTE      IAP_TPS
      000000B0H   SFRSYM    DATA     BIT       P30
      000000A0H.1 SFRSYM    DATA     BIT       P21
      00000090H.2 SFRSYM    DATA     BIT       P12
      00000080H.3 SFRSYM    DATA     BIT       P03
      000000C0H   SFRSYM    DATA     BIT       P40
      000000B0H.1 SFRSYM    DATA     BIT       P31
      000000A0H.2 SFRSYM    DATA     BIT       P22
      00000098H   SFRSYM    DATA     BYTE      SCON
      00000090H.3 SFRSYM    DATA     BIT       P13
      00000080H.4 SFRSYM    DATA     BIT       P04
      000000C8H   SFRSYM    DATA     BIT       P50
      000000C0H.1 SFRSYM    DATA     BIT       P41
      000000B0H.2 SFRSYM    DATA     BIT       P32
      000000A0H.3 SFRSYM    DATA     BIT       P23
      00000090H.4 SFRSYM    DATA     BIT       P14
      00000089H   SFRSYM    DATA     BYTE      TMOD
      00000088H   SFRSYM    DATA     BYTE      TCON
      00000080H.5 SFRSYM    DATA     BIT       P05
      000000E8H   SFRSYM    DATA     BIT       P60
      000000C8H.1 SFRSYM    DATA     BIT       P51
      000000C0H.2 SFRSYM    DATA     BIT       P42
      000000B0H.3 SFRSYM    DATA     BIT       P33
      000000A0H.4 SFRSYM    DATA     BIT       P24
      00000090H.5 SFRSYM    DATA     BIT       P15
      00000080H.6 SFRSYM    DATA     BIT       P06
      000000F8H   SFRSYM    DATA     BIT       P70
      000000E8H.1 SFRSYM    DATA     BIT       P61
      000000C8H.2 SFRSYM    DATA     BIT       P52
      000000C0H.3 SFRSYM    DATA     BIT       P43
      000000B8H.6 SFRSYM    DATA     BIT       PLVD
      000000B0H.4 SFRSYM    DATA     BIT       P34
      000000A0H.5 SFRSYM    DATA     BIT       P25
      00000090H.6 SFRSYM    DATA     BIT       P16
      00000080H.7 SFRSYM    DATA     BIT       P07
      000000F8H.1 SFRSYM    DATA     BIT       P71
      000000E8H.2 SFRSYM    DATA     BIT       P62
      000000C8H.3 SFRSYM    DATA     BIT       P53
      000000C0H.4 SFRSYM    DATA     BIT       P44
      000000B0H.5 SFRSYM    DATA     BIT       P35
      000000A0H.6 SFRSYM    DATA     BIT       P26
LX51 LINKER/LOCATER V4.41                                                             05/12/2022  17:30:48  PAGE 106


      00000090H.7 SFRSYM    DATA     BIT       P17
      000000F8H.2 SFRSYM    DATA     BIT       P72
      000000E8H.3 SFRSYM    DATA     BIT       P63
      000000C8H.4 SFRSYM    DATA     BIT       P54
      000000C0H.5 SFRSYM    DATA     BIT       P45
      000000B0H.6 SFRSYM    DATA     BIT       P36
      000000A0H.7 SFRSYM    DATA     BIT       P27
      000000F8H.3 SFRSYM    DATA     BIT       P73
      000000E8H.4 SFRSYM    DATA     BIT       P64
      000000C8H.5 SFRSYM    DATA     BIT       P55
      000000C0H.6 SFRSYM    DATA     BIT       P46
      000000B0H.7 SFRSYM    DATA     BIT       P37
      000000F8H.4 SFRSYM    DATA     BIT       P74
      000000E8H.5 SFRSYM    DATA     BIT       P65
      000000C8H.6 SFRSYM    DATA     BIT       P56
      000000C0H.7 SFRSYM    DATA     BIT       P47
      000000F8H.5 SFRSYM    DATA     BIT       P75
      000000E8H.6 SFRSYM    DATA     BIT       P66
      000000C8H.7 SFRSYM    DATA     BIT       P57
      000000F8H.6 SFRSYM    DATA     BIT       P76
      000000E8H.7 SFRSYM    DATA     BIT       P67
      000000F8H.7 SFRSYM    DATA     BIT       P77
      00000088H.1 SFRSYM    DATA     BIT       IE0
      00000088H.3 SFRSYM    DATA     BIT       IE1
      000000AFH   SFRSYM    DATA     BYTE      IE2
      000000F0H   SFRSYM    DATA     BYTE      B
      0000008EH   SFRSYM    DATA     BYTE      AUXR
      000000FCH   SFRSYM    DATA     BYTE      USBADR
      000000C7H   SFRSYM    DATA     BYTE      IAP_CONTR
      000000ECH   SFRSYM    DATA     BYTE      USBDAT
      000000DCH   SFRSYM    DATA     BYTE      USBCLK
      000000E0H   SFRSYM    DATA     BYTE      ACC
      000000A8H.1 SFRSYM    DATA     BIT       ET0
      000000A8H.3 SFRSYM    DATA     BIT       ET1
      00000088H.5 SFRSYM    DATA     BIT       TF0
      000000FFH   SFRSYM    DATA     BYTE      RSTCFG
      000000B5H   SFRSYM    DATA     BYTE      IP2
      00000088H.7 SFRSYM    DATA     BIT       TF1
      000000F4H   SFRSYM    DATA     BYTE      USBCON
      000000DFH   SFRSYM    DATA     BYTE      IP3
      00000098H.2 SFRSYM    DATA     BIT       RB8
      0000008CH   SFRSYM    DATA     BYTE      TH0
      000000A8H   SFRSYM    DATA     BIT       EX0
      0000008DH   SFRSYM    DATA     BYTE      TH1
      00000088H   SFRSYM    DATA     BIT       IT0
      000000D6H   SFRSYM    DATA     BYTE      T2H
      000000A8H.2 SFRSYM    DATA     BIT       EX1
      00000098H.3 SFRSYM    DATA     BIT       TB8
      00000088H.2 SFRSYM    DATA     BIT       IT1
      000000D4H   SFRSYM    DATA     BYTE      T3H
      000000D0H   SFRSYM    DATA     BIT       P
      000000D2H   SFRSYM    DATA     BYTE      T4H
      00000098H.7 SFRSYM    DATA     BIT       SM0
      0000008AH   SFRSYM    DATA     BYTE      TL0
      00000098H.6 SFRSYM    DATA     BIT       SM1
      0000008BH   SFRSYM    DATA     BYTE      TL1
      000000D7H   SFRSYM    DATA     BYTE      T2L
      00000098H.5 SFRSYM    DATA     BIT       SM2
      000000D5H   SFRSYM    DATA     BYTE      T3L
      000000D3H   SFRSYM    DATA     BYTE      T4L
      000000B8H.1 SFRSYM    DATA     BIT       PT0
      000000D0H.3 SFRSYM    DATA     BIT       RS0
      000000B8H.3 SFRSYM    DATA     BIT       PT1
      000000D0H.4 SFRSYM    DATA     BIT       RS1
      000000C2H   SFRSYM    DATA     BYTE      IAP_DATA
LX51 LINKER/LOCATER V4.41                                                             05/12/2022  17:30:48  PAGE 107


      00000088H.4 SFRSYM    DATA     BIT       TR0
      00000088H.6 SFRSYM    DATA     BIT       TR1
      000000C1H   SFRSYM    DATA     BYTE      WDT_CONTR
      000000B8H   SFRSYM    DATA     BIT       PX0
      000000B8H.2 SFRSYM    DATA     BIT       PX1
      0000009FH   SFRSYM    DATA     BYTE      IRTRIM
      00000083H   SFRSYM    DATA     BYTE      DPH
      000000D1H   SFRSYM    DATA     BYTE      T4T3M
      000000BEH   SFRSYM    DATA     BYTE      ADC_RESL
      00000082H   SFRSYM    DATA     BYTE      DPL
      000000CDH   SFRSYM    DATA     BYTE      SPSTAT
      000000B7H   SFRSYM    DATA     BYTE      IPH
      0000009BH   SFRSYM    DATA     BYTE      S2BUF
      000000ADH   SFRSYM    DATA     BYTE      S3BUF
      00000098H.4 SFRSYM    DATA     BIT       REN
      00000085H   SFRSYM    DATA     BYTE      S4BUF
      0000009AH   SFRSYM    DATA     BYTE      S2CON
      000000E3H   SFRSYM    DATA     BYTE      DPS
      000000ACH   SFRSYM    DATA     BYTE      S3CON
      00000084H   SFRSYM    DATA     BYTE      S4CON
      000000EFH   SFRSYM    DATA     BYTE      AUXINTIF
      000000B9H   SFRSYM    DATA     BYTE      SADEN
      000000A9H   SFRSYM    DATA     BYTE      SADDR
      000000C6H   SFRSYM    DATA     BYTE      IAP_TRIG
      000000D0H.5 SFRSYM    DATA     BIT       F0
      0000009DH   SFRSYM    DATA     BYTE      IRCBAND
      000000D0H   SFRSYM    DATA     BYTE      PSW
      000000CFH   SFRSYM    DATA     BYTE      SPDAT
      00000094H   SFRSYM    DATA     BYTE      P0M0
      00000005H   SYMBOL    DATA     BYTE      j
      00000004H   SYMBOL    DATA     WORD      CRC16

      ---         MODULE    ---      ---       SEEKFREE_PRINTF
      00000093H   SFRSYM    DATA     BYTE      P0M1
      00000092H   SFRSYM    DATA     BYTE      P1M0
      00000096H   SFRSYM    DATA     BYTE      P2M0
      00000091H   SFRSYM    DATA     BYTE      P1M1
      00000080H   SFRSYM    DATA     BYTE      P0
      000000B2H   SFRSYM    DATA     BYTE      P3M0
      00000095H   SFRSYM    DATA     BYTE      P2M1
      00000090H   SFRSYM    DATA     BYTE      P1
      000000B4H   SFRSYM    DATA     BYTE      P4M0
      000000B1H   SFRSYM    DATA     BYTE      P3M1
      000000A0H   SFRSYM    DATA     BYTE      P2
      000000CAH   SFRSYM    DATA     BYTE      P5M0
      000000B3H   SFRSYM    DATA     BYTE      P4M1
      000000B0H   SFRSYM    DATA     BYTE      P3
      000000ABH   SFRSYM    DATA     BYTE      WKTCH
      000000D0H.6 SFRSYM    DATA     BIT       AC
      000000CCH   SFRSYM    DATA     BYTE      P6M0
      000000C9H   SFRSYM    DATA     BYTE      P5M1
      000000C0H   SFRSYM    DATA     BYTE      P4
      000000E2H   SFRSYM    DATA     BYTE      P7M0
      000000CBH   SFRSYM    DATA     BYTE      P6M1
      000000C8H   SFRSYM    DATA     BYTE      P5
      000000E8H   SFRSYM    DATA     BYTE      P6
      000000E1H   SFRSYM    DATA     BYTE      P7M1
      000000A8H.7 SFRSYM    DATA     BIT       EA
      000000F8H   SFRSYM    DATA     BYTE      P7
      000000AAH   SFRSYM    DATA     BYTE      WKTCL
      000000CEH   SFRSYM    DATA     BYTE      SPCTL
      000000A2H   SFRSYM    DATA     BYTE      P_SW1
      000000BAH   SFRSYM    DATA     BYTE      P_SW2
      000000E5H   SFRSYM    DATA     BYTE      DPH1
      000000A8H.5 SFRSYM    DATA     BIT       EADC
LX51 LINKER/LOCATER V4.41                                                             05/12/2022  17:30:48  PAGE 108


      000000A8H   SFRSYM    DATA     BYTE      IE
      000000C5H   SFRSYM    DATA     BYTE      IAP_CMD
      000000E4H   SFRSYM    DATA     BYTE      DPL1
      000000BDH   SFRSYM    DATA     BYTE      ADC_RES
      000000B6H   SFRSYM    DATA     BYTE      IP2H
      000000EEH   SFRSYM    DATA     BYTE      IP3H
      000000AEH   SFRSYM    DATA     BYTE      TA
      0000008FH   SFRSYM    DATA     BYTE      INTCLKO
      000000A8H.4 SFRSYM    DATA     BIT       ES
      000000B8H.5 SFRSYM    DATA     BIT       PADC
      000000B8H   SFRSYM    DATA     BYTE      IP
      000000DEH   SFRSYM    DATA     BYTE      ADCCFG
      00000098H   SFRSYM    DATA     BIT       RI
      000000D0H.7 SFRSYM    DATA     BIT       CY
      00000098H.1 SFRSYM    DATA     BIT       TI
      000000C3H   SFRSYM    DATA     BYTE      IAP_ADDRH
      000000B8H.4 SFRSYM    DATA     BIT       PS
      00000081H   SFRSYM    DATA     BYTE      SP
      000000C4H   SFRSYM    DATA     BYTE      IAP_ADDRL
      000000D0H.2 SFRSYM    DATA     BIT       OV
      000000B8H.7 SFRSYM    DATA     BIT       PPCA
      0000009EH   SFRSYM    DATA     BYTE      LIRTRIM
      000000E6H   SFRSYM    DATA     BYTE      CMPCR1
      000000E7H   SFRSYM    DATA     BYTE      CMPCR2
      000000A8H.6 SFRSYM    DATA     BIT       ELVD
      00000080H   SFRSYM    DATA     BIT       P00
      000000BCH   SFRSYM    DATA     BYTE      ADC_CONTR
      00000099H   SFRSYM    DATA     BYTE      SBUF
      00000090H   SFRSYM    DATA     BIT       P10
      00000087H   SFRSYM    DATA     BYTE      PCON
      00000080H.1 SFRSYM    DATA     BIT       P01
      000000A0H   SFRSYM    DATA     BIT       P20
      00000090H.1 SFRSYM    DATA     BIT       P11
      00000080H.2 SFRSYM    DATA     BIT       P02
      000000F5H   SFRSYM    DATA     BYTE      IAP_TPS
      000000B0H   SFRSYM    DATA     BIT       P30
      000000A0H.1 SFRSYM    DATA     BIT       P21
      00000090H.2 SFRSYM    DATA     BIT       P12
      00000080H.3 SFRSYM    DATA     BIT       P03
      000000C0H   SFRSYM    DATA     BIT       P40
      000000B0H.1 SFRSYM    DATA     BIT       P31
      000000A0H.2 SFRSYM    DATA     BIT       P22
      00000098H   SFRSYM    DATA     BYTE      SCON
      00000090H.3 SFRSYM    DATA     BIT       P13
      00000080H.4 SFRSYM    DATA     BIT       P04
      000000C8H   SFRSYM    DATA     BIT       P50
      000000C0H.1 SFRSYM    DATA     BIT       P41
      000000B0H.2 SFRSYM    DATA     BIT       P32
      000000A0H.3 SFRSYM    DATA     BIT       P23
      00000090H.4 SFRSYM    DATA     BIT       P14
      00000089H   SFRSYM    DATA     BYTE      TMOD
      00000088H   SFRSYM    DATA     BYTE      TCON
      00000080H.5 SFRSYM    DATA     BIT       P05
      000000E8H   SFRSYM    DATA     BIT       P60
      000000C8H.1 SFRSYM    DATA     BIT       P51
      000000C0H.2 SFRSYM    DATA     BIT       P42
      000000B0H.3 SFRSYM    DATA     BIT       P33
      000000A0H.4 SFRSYM    DATA     BIT       P24
      00000090H.5 SFRSYM    DATA     BIT       P15
      00000080H.6 SFRSYM    DATA     BIT       P06
      000000F8H   SFRSYM    DATA     BIT       P70
      000000E8H.1 SFRSYM    DATA     BIT       P61
      000000C8H.2 SFRSYM    DATA     BIT       P52
      000000C0H.3 SFRSYM    DATA     BIT       P43
      000000B8H.6 SFRSYM    DATA     BIT       PLVD
LX51 LINKER/LOCATER V4.41                                                             05/12/2022  17:30:48  PAGE 109


      000000B0H.4 SFRSYM    DATA     BIT       P34
      000000A0H.5 SFRSYM    DATA     BIT       P25
      00000090H.6 SFRSYM    DATA     BIT       P16
      00000080H.7 SFRSYM    DATA     BIT       P07
      000000F8H.1 SFRSYM    DATA     BIT       P71
      000000E8H.2 SFRSYM    DATA     BIT       P62
      000000C8H.3 SFRSYM    DATA     BIT       P53
      000000C0H.4 SFRSYM    DATA     BIT       P44
      000000B0H.5 SFRSYM    DATA     BIT       P35
      000000A0H.6 SFRSYM    DATA     BIT       P26
      00000090H.7 SFRSYM    DATA     BIT       P17
      000000F8H.2 SFRSYM    DATA     BIT       P72
      000000E8H.3 SFRSYM    DATA     BIT       P63
      000000C8H.4 SFRSYM    DATA     BIT       P54
      000000C0H.5 SFRSYM    DATA     BIT       P45
      000000B0H.6 SFRSYM    DATA     BIT       P36
      000000A0H.7 SFRSYM    DATA     BIT       P27
      000000F8H.3 SFRSYM    DATA     BIT       P73
      000000E8H.4 SFRSYM    DATA     BIT       P64
      000000C8H.5 SFRSYM    DATA     BIT       P55
      000000C0H.6 SFRSYM    DATA     BIT       P46
      000000B0H.7 SFRSYM    DATA     BIT       P37
      000000F8H.4 SFRSYM    DATA     BIT       P74
      000000E8H.5 SFRSYM    DATA     BIT       P65
      000000C8H.6 SFRSYM    DATA     BIT       P56
      000000C0H.7 SFRSYM    DATA     BIT       P47
      000000F8H.5 SFRSYM    DATA     BIT       P75
      000000E8H.6 SFRSYM    DATA     BIT       P66
      000000C8H.7 SFRSYM    DATA     BIT       P57
      000000F8H.6 SFRSYM    DATA     BIT       P76
      000000E8H.7 SFRSYM    DATA     BIT       P67
      000000F8H.7 SFRSYM    DATA     BIT       P77
      00000088H.1 SFRSYM    DATA     BIT       IE0
      00000088H.3 SFRSYM    DATA     BIT       IE1
      000000AFH   SFRSYM    DATA     BYTE      IE2
      000000F0H   SFRSYM    DATA     BYTE      B
      0000008EH   SFRSYM    DATA     BYTE      AUXR
      000000FCH   SFRSYM    DATA     BYTE      USBADR
      000000C7H   SFRSYM    DATA     BYTE      IAP_CONTR
      000000ECH   SFRSYM    DATA     BYTE      USBDAT
      000000DCH   SFRSYM    DATA     BYTE      USBCLK
      000000E0H   SFRSYM    DATA     BYTE      ACC
      000000A8H.1 SFRSYM    DATA     BIT       ET0
      000000A8H.3 SFRSYM    DATA     BIT       ET1
      00000088H.5 SFRSYM    DATA     BIT       TF0
      000000FFH   SFRSYM    DATA     BYTE      RSTCFG
      000000B5H   SFRSYM    DATA     BYTE      IP2
      00000088H.7 SFRSYM    DATA     BIT       TF1
      000000F4H   SFRSYM    DATA     BYTE      USBCON
      000000DFH   SFRSYM    DATA     BYTE      IP3
      00000098H.2 SFRSYM    DATA     BIT       RB8
      0000008CH   SFRSYM    DATA     BYTE      TH0
      000000A8H   SFRSYM    DATA     BIT       EX0
      0000008DH   SFRSYM    DATA     BYTE      TH1
      00000088H   SFRSYM    DATA     BIT       IT0
      000000D6H   SFRSYM    DATA     BYTE      T2H
      000000A8H.2 SFRSYM    DATA     BIT       EX1
      00000098H.3 SFRSYM    DATA     BIT       TB8
      00000088H.2 SFRSYM    DATA     BIT       IT1
      000000D4H   SFRSYM    DATA     BYTE      T3H
      000000D0H   SFRSYM    DATA     BIT       P
      000000D2H   SFRSYM    DATA     BYTE      T4H
      00000098H.7 SFRSYM    DATA     BIT       SM0
      0000008AH   SFRSYM    DATA     BYTE      TL0
      00000098H.6 SFRSYM    DATA     BIT       SM1
LX51 LINKER/LOCATER V4.41                                                             05/12/2022  17:30:48  PAGE 110


      0000008BH   SFRSYM    DATA     BYTE      TL1
      000000D7H   SFRSYM    DATA     BYTE      T2L
      00000098H.5 SFRSYM    DATA     BIT       SM2
      000000D5H   SFRSYM    DATA     BYTE      T3L
      000000D3H   SFRSYM    DATA     BYTE      T4L
      000000B8H.1 SFRSYM    DATA     BIT       PT0
      000000D0H.3 SFRSYM    DATA     BIT       RS0
      000000B8H.3 SFRSYM    DATA     BIT       PT1
      000000D0H.4 SFRSYM    DATA     BIT       RS1
      000000C2H   SFRSYM    DATA     BYTE      IAP_DATA
      00000088H.4 SFRSYM    DATA     BIT       TR0
      00000088H.6 SFRSYM    DATA     BIT       TR1
      000000C1H   SFRSYM    DATA     BYTE      WDT_CONTR
      000000B8H   SFRSYM    DATA     BIT       PX0
      000000B8H.2 SFRSYM    DATA     BIT       PX1
      0000009FH   SFRSYM    DATA     BYTE      IRTRIM
      00000083H   SFRSYM    DATA     BYTE      DPH
      000000D1H   SFRSYM    DATA     BYTE      T4T3M
      000000BEH   SFRSYM    DATA     BYTE      ADC_RESL
      00000082H   SFRSYM    DATA     BYTE      DPL
      000000CDH   SFRSYM    DATA     BYTE      SPSTAT
      000000B7H   SFRSYM    DATA     BYTE      IPH
      0000009BH   SFRSYM    DATA     BYTE      S2BUF
      000000ADH   SFRSYM    DATA     BYTE      S3BUF
      00000098H.4 SFRSYM    DATA     BIT       REN
      00000085H   SFRSYM    DATA     BYTE      S4BUF
      0000009AH   SFRSYM    DATA     BYTE      S2CON
      000000E3H   SFRSYM    DATA     BYTE      DPS
      000000ACH   SFRSYM    DATA     BYTE      S3CON
      00000084H   SFRSYM    DATA     BYTE      S4CON
      000000EFH   SFRSYM    DATA     BYTE      AUXINTIF
      000000B9H   SFRSYM    DATA     BYTE      SADEN
      000000A9H   SFRSYM    DATA     BYTE      SADDR
      000000C6H   SFRSYM    DATA     BYTE      IAP_TRIG
      000000D0H.5 SFRSYM    DATA     BIT       F0
      0000009DH   SFRSYM    DATA     BYTE      IRCBAND
      000000D0H   SFRSYM    DATA     BYTE      PSW
      000000CFH   SFRSYM    DATA     BYTE      SPDAT
      00000094H   SFRSYM    DATA     BYTE      P0M0

      ---         MODULE    ---      ---       SEEKFREE_WIRELESS_CH573
      00000093H   SFRSYM    DATA     BYTE      P0M1
      00000092H   SFRSYM    DATA     BYTE      P1M0
      00000096H   SFRSYM    DATA     BYTE      P2M0
      00000091H   SFRSYM    DATA     BYTE      P1M1
      00000080H   SFRSYM    DATA     BYTE      P0
      000000B2H   SFRSYM    DATA     BYTE      P3M0
      00000095H   SFRSYM    DATA     BYTE      P2M1
      00000090H   SFRSYM    DATA     BYTE      P1
      000000B4H   SFRSYM    DATA     BYTE      P4M0
      000000B1H   SFRSYM    DATA     BYTE      P3M1
      000000A0H   SFRSYM    DATA     BYTE      P2
      000000CAH   SFRSYM    DATA     BYTE      P5M0
      000000B3H   SFRSYM    DATA     BYTE      P4M1
      000000B0H   SFRSYM    DATA     BYTE      P3
      000000ABH   SFRSYM    DATA     BYTE      WKTCH
      000000D0H.6 SFRSYM    DATA     BIT       AC
      000000CCH   SFRSYM    DATA     BYTE      P6M0
      000000C9H   SFRSYM    DATA     BYTE      P5M1
      000000C0H   SFRSYM    DATA     BYTE      P4
      000000E2H   SFRSYM    DATA     BYTE      P7M0
      000000CBH   SFRSYM    DATA     BYTE      P6M1
      000000C8H   SFRSYM    DATA     BYTE      P5
      000000E8H   SFRSYM    DATA     BYTE      P6
      000000E1H   SFRSYM    DATA     BYTE      P7M1
LX51 LINKER/LOCATER V4.41                                                             05/12/2022  17:30:48  PAGE 111


      000000A8H.7 SFRSYM    DATA     BIT       EA
      000000F8H   SFRSYM    DATA     BYTE      P7
      000000AAH   SFRSYM    DATA     BYTE      WKTCL
      000000CEH   SFRSYM    DATA     BYTE      SPCTL
      000000A2H   SFRSYM    DATA     BYTE      P_SW1
      000000BAH   SFRSYM    DATA     BYTE      P_SW2
      000000E5H   SFRSYM    DATA     BYTE      DPH1
      000000A8H.5 SFRSYM    DATA     BIT       EADC
      000000A8H   SFRSYM    DATA     BYTE      IE
      000000C5H   SFRSYM    DATA     BYTE      IAP_CMD
      000000E4H   SFRSYM    DATA     BYTE      DPL1
      000000BDH   SFRSYM    DATA     BYTE      ADC_RES
      000000B6H   SFRSYM    DATA     BYTE      IP2H
      000000EEH   SFRSYM    DATA     BYTE      IP3H
      000000AEH   SFRSYM    DATA     BYTE      TA
      0000008FH   SFRSYM    DATA     BYTE      INTCLKO
      000000A8H.4 SFRSYM    DATA     BIT       ES
      000000B8H.5 SFRSYM    DATA     BIT       PADC
      000000B8H   SFRSYM    DATA     BYTE      IP
      000000DEH   SFRSYM    DATA     BYTE      ADCCFG
      00000098H   SFRSYM    DATA     BIT       RI
      000000D0H.7 SFRSYM    DATA     BIT       CY
      00000098H.1 SFRSYM    DATA     BIT       TI
      000000C3H   SFRSYM    DATA     BYTE      IAP_ADDRH
      000000B8H.4 SFRSYM    DATA     BIT       PS
      00000081H   SFRSYM    DATA     BYTE      SP
      000000C4H   SFRSYM    DATA     BYTE      IAP_ADDRL
      000000D0H.2 SFRSYM    DATA     BIT       OV
      000000B8H.7 SFRSYM    DATA     BIT       PPCA
      0000009EH   SFRSYM    DATA     BYTE      LIRTRIM
      000000E6H   SFRSYM    DATA     BYTE      CMPCR1
      000000E7H   SFRSYM    DATA     BYTE      CMPCR2
      000000A8H.6 SFRSYM    DATA     BIT       ELVD
      00000080H   SFRSYM    DATA     BIT       P00
      000000BCH   SFRSYM    DATA     BYTE      ADC_CONTR
      00000099H   SFRSYM    DATA     BYTE      SBUF
      00000090H   SFRSYM    DATA     BIT       P10
      00000087H   SFRSYM    DATA     BYTE      PCON
      00000080H.1 SFRSYM    DATA     BIT       P01
      000000A0H   SFRSYM    DATA     BIT       P20
      00000090H.1 SFRSYM    DATA     BIT       P11
      00000080H.2 SFRSYM    DATA     BIT       P02
      000000F5H   SFRSYM    DATA     BYTE      IAP_TPS
      000000B0H   SFRSYM    DATA     BIT       P30
      000000A0H.1 SFRSYM    DATA     BIT       P21
      00000090H.2 SFRSYM    DATA     BIT       P12
      00000080H.3 SFRSYM    DATA     BIT       P03
      000000C0H   SFRSYM    DATA     BIT       P40
      000000B0H.1 SFRSYM    DATA     BIT       P31
      000000A0H.2 SFRSYM    DATA     BIT       P22
      00000098H   SFRSYM    DATA     BYTE      SCON
      00000090H.3 SFRSYM    DATA     BIT       P13
      00000080H.4 SFRSYM    DATA     BIT       P04
      000000C8H   SFRSYM    DATA     BIT       P50
      000000C0H.1 SFRSYM    DATA     BIT       P41
      000000B0H.2 SFRSYM    DATA     BIT       P32
      000000A0H.3 SFRSYM    DATA     BIT       P23
      00000090H.4 SFRSYM    DATA     BIT       P14
      00000089H   SFRSYM    DATA     BYTE      TMOD
      00000088H   SFRSYM    DATA     BYTE      TCON
      00000080H.5 SFRSYM    DATA     BIT       P05
      000000E8H   SFRSYM    DATA     BIT       P60
      000000C8H.1 SFRSYM    DATA     BIT       P51
      000000C0H.2 SFRSYM    DATA     BIT       P42
      000000B0H.3 SFRSYM    DATA     BIT       P33
LX51 LINKER/LOCATER V4.41                                                             05/12/2022  17:30:48  PAGE 112


      000000A0H.4 SFRSYM    DATA     BIT       P24
      00000090H.5 SFRSYM    DATA     BIT       P15
      00000080H.6 SFRSYM    DATA     BIT       P06
      000000F8H   SFRSYM    DATA     BIT       P70
      000000E8H.1 SFRSYM    DATA     BIT       P61
      000000C8H.2 SFRSYM    DATA     BIT       P52
      000000C0H.3 SFRSYM    DATA     BIT       P43
      000000B8H.6 SFRSYM    DATA     BIT       PLVD
      000000B0H.4 SFRSYM    DATA     BIT       P34
      000000A0H.5 SFRSYM    DATA     BIT       P25
      00000090H.6 SFRSYM    DATA     BIT       P16
      00000080H.7 SFRSYM    DATA     BIT       P07
      000000F8H.1 SFRSYM    DATA     BIT       P71
      000000E8H.2 SFRSYM    DATA     BIT       P62
      000000C8H.3 SFRSYM    DATA     BIT       P53
      000000C0H.4 SFRSYM    DATA     BIT       P44
      000000B0H.5 SFRSYM    DATA     BIT       P35
      000000A0H.6 SFRSYM    DATA     BIT       P26
      00000090H.7 SFRSYM    DATA     BIT       P17
      000000F8H.2 SFRSYM    DATA     BIT       P72
      000000E8H.3 SFRSYM    DATA     BIT       P63
      000000C8H.4 SFRSYM    DATA     BIT       P54
      000000C0H.5 SFRSYM    DATA     BIT       P45
      000000B0H.6 SFRSYM    DATA     BIT       P36
      000000A0H.7 SFRSYM    DATA     BIT       P27
      000000F8H.3 SFRSYM    DATA     BIT       P73
      000000E8H.4 SFRSYM    DATA     BIT       P64
      000000C8H.5 SFRSYM    DATA     BIT       P55
      000000C0H.6 SFRSYM    DATA     BIT       P46
      000000B0H.7 SFRSYM    DATA     BIT       P37
      000000F8H.4 SFRSYM    DATA     BIT       P74
      000000E8H.5 SFRSYM    DATA     BIT       P65
      000000C8H.6 SFRSYM    DATA     BIT       P56
      000000C0H.7 SFRSYM    DATA     BIT       P47
      000000F8H.5 SFRSYM    DATA     BIT       P75
      000000E8H.6 SFRSYM    DATA     BIT       P66
      000000C8H.7 SFRSYM    DATA     BIT       P57
      000000F8H.6 SFRSYM    DATA     BIT       P76
      000000E8H.7 SFRSYM    DATA     BIT       P67
      000000F8H.7 SFRSYM    DATA     BIT       P77
      00000088H.1 SFRSYM    DATA     BIT       IE0
      00000088H.3 SFRSYM    DATA     BIT       IE1
      000000AFH   SFRSYM    DATA     BYTE      IE2
      000000F0H   SFRSYM    DATA     BYTE      B
      0000008EH   SFRSYM    DATA     BYTE      AUXR
      000000FCH   SFRSYM    DATA     BYTE      USBADR
      000000C7H   SFRSYM    DATA     BYTE      IAP_CONTR
      000000ECH   SFRSYM    DATA     BYTE      USBDAT
      000000DCH   SFRSYM    DATA     BYTE      USBCLK
      000000E0H   SFRSYM    DATA     BYTE      ACC
      000000A8H.1 SFRSYM    DATA     BIT       ET0
      000000A8H.3 SFRSYM    DATA     BIT       ET1
      00000088H.5 SFRSYM    DATA     BIT       TF0
      000000FFH   SFRSYM    DATA     BYTE      RSTCFG
      000000B5H   SFRSYM    DATA     BYTE      IP2
      00000088H.7 SFRSYM    DATA     BIT       TF1
      000000F4H   SFRSYM    DATA     BYTE      USBCON
      000000DFH   SFRSYM    DATA     BYTE      IP3
      00000098H.2 SFRSYM    DATA     BIT       RB8
      0000008CH   SFRSYM    DATA     BYTE      TH0
      000000A8H   SFRSYM    DATA     BIT       EX0
      0000008DH   SFRSYM    DATA     BYTE      TH1
      00000088H   SFRSYM    DATA     BIT       IT0
      000000D6H   SFRSYM    DATA     BYTE      T2H
      000000A8H.2 SFRSYM    DATA     BIT       EX1
LX51 LINKER/LOCATER V4.41                                                             05/12/2022  17:30:48  PAGE 113


      00000098H.3 SFRSYM    DATA     BIT       TB8
      00000088H.2 SFRSYM    DATA     BIT       IT1
      000000D4H   SFRSYM    DATA     BYTE      T3H
      000000D0H   SFRSYM    DATA     BIT       P
      000000D2H   SFRSYM    DATA     BYTE      T4H
      00000098H.7 SFRSYM    DATA     BIT       SM0
      0000008AH   SFRSYM    DATA     BYTE      TL0
      00000098H.6 SFRSYM    DATA     BIT       SM1
      0000008BH   SFRSYM    DATA     BYTE      TL1
      000000D7H   SFRSYM    DATA     BYTE      T2L
      00000098H.5 SFRSYM    DATA     BIT       SM2
      000000D5H   SFRSYM    DATA     BYTE      T3L
      000000D3H   SFRSYM    DATA     BYTE      T4L
      000000B8H.1 SFRSYM    DATA     BIT       PT0
      000000D0H.3 SFRSYM    DATA     BIT       RS0
      000000B8H.3 SFRSYM    DATA     BIT       PT1
      000000D0H.4 SFRSYM    DATA     BIT       RS1
      000000C2H   SFRSYM    DATA     BYTE      IAP_DATA
      00000088H.4 SFRSYM    DATA     BIT       TR0
      00000088H.6 SFRSYM    DATA     BIT       TR1
      000000C1H   SFRSYM    DATA     BYTE      WDT_CONTR
      000000B8H   SFRSYM    DATA     BIT       PX0
      000000B8H.2 SFRSYM    DATA     BIT       PX1
      0000009FH   SFRSYM    DATA     BYTE      IRTRIM
      00000083H   SFRSYM    DATA     BYTE      DPH
      000000D1H   SFRSYM    DATA     BYTE      T4T3M
      000000BEH   SFRSYM    DATA     BYTE      ADC_RESL
      00000082H   SFRSYM    DATA     BYTE      DPL
      000000CDH   SFRSYM    DATA     BYTE      SPSTAT
      000000B7H   SFRSYM    DATA     BYTE      IPH
      0000009BH   SFRSYM    DATA     BYTE      S2BUF
      000000ADH   SFRSYM    DATA     BYTE      S3BUF
      00000098H.4 SFRSYM    DATA     BIT       REN
      00000085H   SFRSYM    DATA     BYTE      S4BUF
      0000009AH   SFRSYM    DATA     BYTE      S2CON
      000000E3H   SFRSYM    DATA     BYTE      DPS
      000000ACH   SFRSYM    DATA     BYTE      S3CON
      00000084H   SFRSYM    DATA     BYTE      S4CON
      000000EFH   SFRSYM    DATA     BYTE      AUXINTIF
      000000B9H   SFRSYM    DATA     BYTE      SADEN
      000000A9H   SFRSYM    DATA     BYTE      SADDR
      000000C6H   SFRSYM    DATA     BYTE      IAP_TRIG
      000000D0H.5 SFRSYM    DATA     BIT       F0
      0000009DH   SFRSYM    DATA     BYTE      IRCBAND
      000000D0H   SFRSYM    DATA     BYTE      PSW
      000000CFH   SFRSYM    DATA     BYTE      SPDAT
      00000094H   SFRSYM    DATA     BYTE      P0M0

      ---         MODULE    ---      ---       SEEKFREE_BLUETOOTH_CH9141
      020001F2H   PUBLIC    XDATA    ---       mac_address
      020001F1H   PUBLIC    XDATA    BYTE      at_mode_cmd_flag
      020001F0H   PUBLIC    XDATA    BYTE      at_mode
      020001D2H   PUBLIC    XDATA    ---       at_mode_data
      020001D1H   PUBLIC    XDATA    BYTE      uart_flag
      020001D0H   PUBLIC    XDATA    BYTE      uart_data
      020001CFH   PUBLIC    XDATA    BYTE      at_mode_num
      020001CEH   PUBLIC    XDATA    BYTE      bluetooth_ch9141_rx_buffer
      00000093H   SFRSYM    DATA     BYTE      P0M1
      00000092H   SFRSYM    DATA     BYTE      P1M0
      00000096H   SFRSYM    DATA     BYTE      P2M0
      00000091H   SFRSYM    DATA     BYTE      P1M1
      00000080H   SFRSYM    DATA     BYTE      P0
      000000B2H   SFRSYM    DATA     BYTE      P3M0
      00000095H   SFRSYM    DATA     BYTE      P2M1
      00000090H   SFRSYM    DATA     BYTE      P1
LX51 LINKER/LOCATER V4.41                                                             05/12/2022  17:30:48  PAGE 114


      000000B4H   SFRSYM    DATA     BYTE      P4M0
      000000B1H   SFRSYM    DATA     BYTE      P3M1
      000000A0H   SFRSYM    DATA     BYTE      P2
      000000CAH   SFRSYM    DATA     BYTE      P5M0
      000000B3H   SFRSYM    DATA     BYTE      P4M1
      000000B0H   SFRSYM    DATA     BYTE      P3
      000000ABH   SFRSYM    DATA     BYTE      WKTCH
      000000D0H.6 SFRSYM    DATA     BIT       AC
      000000CCH   SFRSYM    DATA     BYTE      P6M0
      000000C9H   SFRSYM    DATA     BYTE      P5M1
      000000C0H   SFRSYM    DATA     BYTE      P4
      000000E2H   SFRSYM    DATA     BYTE      P7M0
      000000CBH   SFRSYM    DATA     BYTE      P6M1
      000000C8H   SFRSYM    DATA     BYTE      P5
      000000E8H   SFRSYM    DATA     BYTE      P6
      000000E1H   SFRSYM    DATA     BYTE      P7M1
      000000A8H.7 SFRSYM    DATA     BIT       EA
      000000F8H   SFRSYM    DATA     BYTE      P7
      000000AAH   SFRSYM    DATA     BYTE      WKTCL
      000000CEH   SFRSYM    DATA     BYTE      SPCTL
      000000A2H   SFRSYM    DATA     BYTE      P_SW1
      000000BAH   SFRSYM    DATA     BYTE      P_SW2
      000000E5H   SFRSYM    DATA     BYTE      DPH1
      000000A8H.5 SFRSYM    DATA     BIT       EADC
      000000A8H   SFRSYM    DATA     BYTE      IE
      000000C5H   SFRSYM    DATA     BYTE      IAP_CMD
      000000E4H   SFRSYM    DATA     BYTE      DPL1
      000000BDH   SFRSYM    DATA     BYTE      ADC_RES
      000000B6H   SFRSYM    DATA     BYTE      IP2H
      000000EEH   SFRSYM    DATA     BYTE      IP3H
      000000AEH   SFRSYM    DATA     BYTE      TA
      0000008FH   SFRSYM    DATA     BYTE      INTCLKO
      000000A8H.4 SFRSYM    DATA     BIT       ES
      000000B8H.5 SFRSYM    DATA     BIT       PADC
      000000B8H   SFRSYM    DATA     BYTE      IP
      000000DEH   SFRSYM    DATA     BYTE      ADCCFG
      00000098H   SFRSYM    DATA     BIT       RI
      000000D0H.7 SFRSYM    DATA     BIT       CY
      00000098H.1 SFRSYM    DATA     BIT       TI
      000000C3H   SFRSYM    DATA     BYTE      IAP_ADDRH
      000000B8H.4 SFRSYM    DATA     BIT       PS
      00000081H   SFRSYM    DATA     BYTE      SP
      000000C4H   SFRSYM    DATA     BYTE      IAP_ADDRL
      000000D0H.2 SFRSYM    DATA     BIT       OV
      000000B8H.7 SFRSYM    DATA     BIT       PPCA
      0000009EH   SFRSYM    DATA     BYTE      LIRTRIM
      000000E6H   SFRSYM    DATA     BYTE      CMPCR1
      000000E7H   SFRSYM    DATA     BYTE      CMPCR2
      000000A8H.6 SFRSYM    DATA     BIT       ELVD
      00000080H   SFRSYM    DATA     BIT       P00
      000000BCH   SFRSYM    DATA     BYTE      ADC_CONTR
      00000099H   SFRSYM    DATA     BYTE      SBUF
      00000090H   SFRSYM    DATA     BIT       P10
      00000087H   SFRSYM    DATA     BYTE      PCON
      00000080H.1 SFRSYM    DATA     BIT       P01
      000000A0H   SFRSYM    DATA     BIT       P20
      00000090H.1 SFRSYM    DATA     BIT       P11
      00000080H.2 SFRSYM    DATA     BIT       P02
      000000F5H   SFRSYM    DATA     BYTE      IAP_TPS
      000000B0H   SFRSYM    DATA     BIT       P30
      000000A0H.1 SFRSYM    DATA     BIT       P21
      00000090H.2 SFRSYM    DATA     BIT       P12
      00000080H.3 SFRSYM    DATA     BIT       P03
      000000C0H   SFRSYM    DATA     BIT       P40
      000000B0H.1 SFRSYM    DATA     BIT       P31
LX51 LINKER/LOCATER V4.41                                                             05/12/2022  17:30:48  PAGE 115


      000000A0H.2 SFRSYM    DATA     BIT       P22
      00000098H   SFRSYM    DATA     BYTE      SCON
      00000090H.3 SFRSYM    DATA     BIT       P13
      00000080H.4 SFRSYM    DATA     BIT       P04
      000000C8H   SFRSYM    DATA     BIT       P50
      000000C0H.1 SFRSYM    DATA     BIT       P41
      000000B0H.2 SFRSYM    DATA     BIT       P32
      000000A0H.3 SFRSYM    DATA     BIT       P23
      00000090H.4 SFRSYM    DATA     BIT       P14
      00000089H   SFRSYM    DATA     BYTE      TMOD
      00000088H   SFRSYM    DATA     BYTE      TCON
      00000080H.5 SFRSYM    DATA     BIT       P05
      000000E8H   SFRSYM    DATA     BIT       P60
      000000C8H.1 SFRSYM    DATA     BIT       P51
      000000C0H.2 SFRSYM    DATA     BIT       P42
      000000B0H.3 SFRSYM    DATA     BIT       P33
      000000A0H.4 SFRSYM    DATA     BIT       P24
      00000090H.5 SFRSYM    DATA     BIT       P15
      00000080H.6 SFRSYM    DATA     BIT       P06
      000000F8H   SFRSYM    DATA     BIT       P70
      000000E8H.1 SFRSYM    DATA     BIT       P61
      000000C8H.2 SFRSYM    DATA     BIT       P52
      000000C0H.3 SFRSYM    DATA     BIT       P43
      000000B8H.6 SFRSYM    DATA     BIT       PLVD
      000000B0H.4 SFRSYM    DATA     BIT       P34
      000000A0H.5 SFRSYM    DATA     BIT       P25
      00000090H.6 SFRSYM    DATA     BIT       P16
      00000080H.7 SFRSYM    DATA     BIT       P07
      000000F8H.1 SFRSYM    DATA     BIT       P71
      000000E8H.2 SFRSYM    DATA     BIT       P62
      000000C8H.3 SFRSYM    DATA     BIT       P53
      000000C0H.4 SFRSYM    DATA     BIT       P44
      000000B0H.5 SFRSYM    DATA     BIT       P35
      000000A0H.6 SFRSYM    DATA     BIT       P26
      00000090H.7 SFRSYM    DATA     BIT       P17
      000000F8H.2 SFRSYM    DATA     BIT       P72
      000000E8H.3 SFRSYM    DATA     BIT       P63
      000000C8H.4 SFRSYM    DATA     BIT       P54
      000000C0H.5 SFRSYM    DATA     BIT       P45
      000000B0H.6 SFRSYM    DATA     BIT       P36
      000000A0H.7 SFRSYM    DATA     BIT       P27
      000000F8H.3 SFRSYM    DATA     BIT       P73
      000000E8H.4 SFRSYM    DATA     BIT       P64
      000000C8H.5 SFRSYM    DATA     BIT       P55
      000000C0H.6 SFRSYM    DATA     BIT       P46
      000000B0H.7 SFRSYM    DATA     BIT       P37
      000000F8H.4 SFRSYM    DATA     BIT       P74
      000000E8H.5 SFRSYM    DATA     BIT       P65
      000000C8H.6 SFRSYM    DATA     BIT       P56
      000000C0H.7 SFRSYM    DATA     BIT       P47
      000000F8H.5 SFRSYM    DATA     BIT       P75
      000000E8H.6 SFRSYM    DATA     BIT       P66
      000000C8H.7 SFRSYM    DATA     BIT       P57
      000000F8H.6 SFRSYM    DATA     BIT       P76
      000000E8H.7 SFRSYM    DATA     BIT       P67
      000000F8H.7 SFRSYM    DATA     BIT       P77
      00000088H.1 SFRSYM    DATA     BIT       IE0
      00000088H.3 SFRSYM    DATA     BIT       IE1
      000000AFH   SFRSYM    DATA     BYTE      IE2
      000000F0H   SFRSYM    DATA     BYTE      B
      0000008EH   SFRSYM    DATA     BYTE      AUXR
      000000FCH   SFRSYM    DATA     BYTE      USBADR
      000000C7H   SFRSYM    DATA     BYTE      IAP_CONTR
      000000ECH   SFRSYM    DATA     BYTE      USBDAT
      000000DCH   SFRSYM    DATA     BYTE      USBCLK
LX51 LINKER/LOCATER V4.41                                                             05/12/2022  17:30:48  PAGE 116


      000000E0H   SFRSYM    DATA     BYTE      ACC
      000000A8H.1 SFRSYM    DATA     BIT       ET0
      000000A8H.3 SFRSYM    DATA     BIT       ET1
      00000088H.5 SFRSYM    DATA     BIT       TF0
      000000FFH   SFRSYM    DATA     BYTE      RSTCFG
      000000B5H   SFRSYM    DATA     BYTE      IP2
      00000088H.7 SFRSYM    DATA     BIT       TF1
      000000F4H   SFRSYM    DATA     BYTE      USBCON
      000000DFH   SFRSYM    DATA     BYTE      IP3
      00000098H.2 SFRSYM    DATA     BIT       RB8
      0000008CH   SFRSYM    DATA     BYTE      TH0
      000000A8H   SFRSYM    DATA     BIT       EX0
      0000008DH   SFRSYM    DATA     BYTE      TH1
      00000088H   SFRSYM    DATA     BIT       IT0
      000000D6H   SFRSYM    DATA     BYTE      T2H
      000000A8H.2 SFRSYM    DATA     BIT       EX1
      00000098H.3 SFRSYM    DATA     BIT       TB8
      00000088H.2 SFRSYM    DATA     BIT       IT1
      000000D4H   SFRSYM    DATA     BYTE      T3H
      000000D0H   SFRSYM    DATA     BIT       P
      000000D2H   SFRSYM    DATA     BYTE      T4H
      00000098H.7 SFRSYM    DATA     BIT       SM0
      0000008AH   SFRSYM    DATA     BYTE      TL0
      00000098H.6 SFRSYM    DATA     BIT       SM1
      0000008BH   SFRSYM    DATA     BYTE      TL1
      000000D7H   SFRSYM    DATA     BYTE      T2L
      00000098H.5 SFRSYM    DATA     BIT       SM2
      000000D5H   SFRSYM    DATA     BYTE      T3L
      000000D3H   SFRSYM    DATA     BYTE      T4L
      000000B8H.1 SFRSYM    DATA     BIT       PT0
      000000D0H.3 SFRSYM    DATA     BIT       RS0
      000000B8H.3 SFRSYM    DATA     BIT       PT1
      000000D0H.4 SFRSYM    DATA     BIT       RS1
      000000C2H   SFRSYM    DATA     BYTE      IAP_DATA
      00000088H.4 SFRSYM    DATA     BIT       TR0
      00000088H.6 SFRSYM    DATA     BIT       TR1
      000000C1H   SFRSYM    DATA     BYTE      WDT_CONTR
      000000B8H   SFRSYM    DATA     BIT       PX0
      000000B8H.2 SFRSYM    DATA     BIT       PX1
      0000009FH   SFRSYM    DATA     BYTE      IRTRIM
      00000083H   SFRSYM    DATA     BYTE      DPH
      000000D1H   SFRSYM    DATA     BYTE      T4T3M
      000000BEH   SFRSYM    DATA     BYTE      ADC_RESL
      00000082H   SFRSYM    DATA     BYTE      DPL
      000000CDH   SFRSYM    DATA     BYTE      SPSTAT
      000000B7H   SFRSYM    DATA     BYTE      IPH
      0000009BH   SFRSYM    DATA     BYTE      S2BUF
      000000ADH   SFRSYM    DATA     BYTE      S3BUF
      00000098H.4 SFRSYM    DATA     BIT       REN
      00000085H   SFRSYM    DATA     BYTE      S4BUF
      0000009AH   SFRSYM    DATA     BYTE      S2CON
      000000E3H   SFRSYM    DATA     BYTE      DPS
      000000ACH   SFRSYM    DATA     BYTE      S3CON
      00000084H   SFRSYM    DATA     BYTE      S4CON
      000000EFH   SFRSYM    DATA     BYTE      AUXINTIF
      000000B9H   SFRSYM    DATA     BYTE      SADEN
      000000A9H   SFRSYM    DATA     BYTE      SADDR
      000000C6H   SFRSYM    DATA     BYTE      IAP_TRIG
      000000D0H.5 SFRSYM    DATA     BIT       F0
      0000009DH   SFRSYM    DATA     BYTE      IRCBAND
      000000D0H   SFRSYM    DATA     BYTE      PSW
      000000CFH   SFRSYM    DATA     BYTE      SPDAT
      00000094H   SFRSYM    DATA     BYTE      P0M0
      00000001H   SYMBOL    DATA     ---       str
      00000007H   SYMBOL    DATA     BYTE      tx_power
LX51 LINKER/LOCATER V4.41                                                             05/12/2022  17:30:48  PAGE 117


      00000007H   SYMBOL    DATA     BYTE      mode
      00000007H   SYMBOL    DATA     BYTE      ch9141_status
      00000007H   SYMBOL    DATA     BYTE      enable
      00000003H   SYMBOL    DATA     BYTE      i

      ---         MODULE    ---      ---       ISR
      010016DAH   PUBLIC    CODE     ---       TM4_Isr
      01001818H   PUBLIC    CODE     ---       TM3_Isr
      01001814H   PUBLIC    CODE     ---       TM2_Isr
      01001825H   PUBLIC    CODE     ---       TM1_Isr
      01001824H   PUBLIC    CODE     ---       TM0_Isr
      01001810H   PUBLIC    CODE     ---       INT4_Isr
      0100180CH   PUBLIC    CODE     ---       INT3_Isr
      01001808H   PUBLIC    CODE     ---       INT2_Isr
      01001823H   PUBLIC    CODE     ---       INT1_Isr
      01001822H   PUBLIC    CODE     ---       INT0_Isr
      0100178DH   PUBLIC    CODE     ---       UART4_Isr
      0100176BH   PUBLIC    CODE     ---       UART3_Isr
      01001749H   PUBLIC    CODE     ---       UART2_Isr
      01001608H   PUBLIC    CODE     ---       UART1_Isr
      00000093H   SFRSYM    DATA     BYTE      P0M1
      00000092H   SFRSYM    DATA     BYTE      P1M0
      00000096H   SFRSYM    DATA     BYTE      P2M0
      00000091H   SFRSYM    DATA     BYTE      P1M1
      00000080H   SFRSYM    DATA     BYTE      P0
      000000B2H   SFRSYM    DATA     BYTE      P3M0
      00000095H   SFRSYM    DATA     BYTE      P2M1
      00000090H   SFRSYM    DATA     BYTE      P1
      000000B4H   SFRSYM    DATA     BYTE      P4M0
      000000B1H   SFRSYM    DATA     BYTE      P3M1
      000000A0H   SFRSYM    DATA     BYTE      P2
      000000CAH   SFRSYM    DATA     BYTE      P5M0
      000000B3H   SFRSYM    DATA     BYTE      P4M1
      000000B0H   SFRSYM    DATA     BYTE      P3
      000000ABH   SFRSYM    DATA     BYTE      WKTCH
      000000D0H.6 SFRSYM    DATA     BIT       AC
      000000CCH   SFRSYM    DATA     BYTE      P6M0
      000000C9H   SFRSYM    DATA     BYTE      P5M1
      000000C0H   SFRSYM    DATA     BYTE      P4
      000000E2H   SFRSYM    DATA     BYTE      P7M0
      000000CBH   SFRSYM    DATA     BYTE      P6M1
      000000C8H   SFRSYM    DATA     BYTE      P5
      000000E8H   SFRSYM    DATA     BYTE      P6
      000000E1H   SFRSYM    DATA     BYTE      P7M1
      000000A8H.7 SFRSYM    DATA     BIT       EA
      000000F8H   SFRSYM    DATA     BYTE      P7
      000000AAH   SFRSYM    DATA     BYTE      WKTCL
      000000CEH   SFRSYM    DATA     BYTE      SPCTL
      000000A2H   SFRSYM    DATA     BYTE      P_SW1
      000000BAH   SFRSYM    DATA     BYTE      P_SW2
      000000E5H   SFRSYM    DATA     BYTE      DPH1
      000000A8H.5 SFRSYM    DATA     BIT       EADC
      000000A8H   SFRSYM    DATA     BYTE      IE
      000000C5H   SFRSYM    DATA     BYTE      IAP_CMD
      000000E4H   SFRSYM    DATA     BYTE      DPL1
      000000BDH   SFRSYM    DATA     BYTE      ADC_RES
      000000B6H   SFRSYM    DATA     BYTE      IP2H
      000000EEH   SFRSYM    DATA     BYTE      IP3H
      000000AEH   SFRSYM    DATA     BYTE      TA
      0000008FH   SFRSYM    DATA     BYTE      INTCLKO
      000000A8H.4 SFRSYM    DATA     BIT       ES
      000000B8H.5 SFRSYM    DATA     BIT       PADC
      000000B8H   SFRSYM    DATA     BYTE      IP
      000000DEH   SFRSYM    DATA     BYTE      ADCCFG
      00000098H   SFRSYM    DATA     BIT       RI
LX51 LINKER/LOCATER V4.41                                                             05/12/2022  17:30:48  PAGE 118


      000000D0H.7 SFRSYM    DATA     BIT       CY
      00000098H.1 SFRSYM    DATA     BIT       TI
      000000C3H   SFRSYM    DATA     BYTE      IAP_ADDRH
      000000B8H.4 SFRSYM    DATA     BIT       PS
      00000081H   SFRSYM    DATA     BYTE      SP
      000000C4H   SFRSYM    DATA     BYTE      IAP_ADDRL
      000000D0H.2 SFRSYM    DATA     BIT       OV
      000000B8H.7 SFRSYM    DATA     BIT       PPCA
      0000009EH   SFRSYM    DATA     BYTE      LIRTRIM
      000000E6H   SFRSYM    DATA     BYTE      CMPCR1
      000000E7H   SFRSYM    DATA     BYTE      CMPCR2
      000000A8H.6 SFRSYM    DATA     BIT       ELVD
      00000080H   SFRSYM    DATA     BIT       P00
      000000BCH   SFRSYM    DATA     BYTE      ADC_CONTR
      00000099H   SFRSYM    DATA     BYTE      SBUF
      00000090H   SFRSYM    DATA     BIT       P10
      00000087H   SFRSYM    DATA     BYTE      PCON
      00000080H.1 SFRSYM    DATA     BIT       P01
      000000A0H   SFRSYM    DATA     BIT       P20
      00000090H.1 SFRSYM    DATA     BIT       P11
      00000080H.2 SFRSYM    DATA     BIT       P02
      000000F5H   SFRSYM    DATA     BYTE      IAP_TPS
      000000B0H   SFRSYM    DATA     BIT       P30
      000000A0H.1 SFRSYM    DATA     BIT       P21
      00000090H.2 SFRSYM    DATA     BIT       P12
      00000080H.3 SFRSYM    DATA     BIT       P03
      000000C0H   SFRSYM    DATA     BIT       P40
      000000B0H.1 SFRSYM    DATA     BIT       P31
      000000A0H.2 SFRSYM    DATA     BIT       P22
      00000098H   SFRSYM    DATA     BYTE      SCON
      00000090H.3 SFRSYM    DATA     BIT       P13
      00000080H.4 SFRSYM    DATA     BIT       P04
      000000C8H   SFRSYM    DATA     BIT       P50
      000000C0H.1 SFRSYM    DATA     BIT       P41
      000000B0H.2 SFRSYM    DATA     BIT       P32
      000000A0H.3 SFRSYM    DATA     BIT       P23
      00000090H.4 SFRSYM    DATA     BIT       P14
      00000089H   SFRSYM    DATA     BYTE      TMOD
      00000088H   SFRSYM    DATA     BYTE      TCON
      00000080H.5 SFRSYM    DATA     BIT       P05
      000000E8H   SFRSYM    DATA     BIT       P60
      000000C8H.1 SFRSYM    DATA     BIT       P51
      000000C0H.2 SFRSYM    DATA     BIT       P42
      000000B0H.3 SFRSYM    DATA     BIT       P33
      000000A0H.4 SFRSYM    DATA     BIT       P24
      00000090H.5 SFRSYM    DATA     BIT       P15
      00000080H.6 SFRSYM    DATA     BIT       P06
      000000F8H   SFRSYM    DATA     BIT       P70
      000000E8H.1 SFRSYM    DATA     BIT       P61
      000000C8H.2 SFRSYM    DATA     BIT       P52
      000000C0H.3 SFRSYM    DATA     BIT       P43
      000000B8H.6 SFRSYM    DATA     BIT       PLVD
      000000B0H.4 SFRSYM    DATA     BIT       P34
      000000A0H.5 SFRSYM    DATA     BIT       P25
      00000090H.6 SFRSYM    DATA     BIT       P16
      00000080H.7 SFRSYM    DATA     BIT       P07
      000000F8H.1 SFRSYM    DATA     BIT       P71
      000000E8H.2 SFRSYM    DATA     BIT       P62
      000000C8H.3 SFRSYM    DATA     BIT       P53
      000000C0H.4 SFRSYM    DATA     BIT       P44
      000000B0H.5 SFRSYM    DATA     BIT       P35
      000000A0H.6 SFRSYM    DATA     BIT       P26
      00000090H.7 SFRSYM    DATA     BIT       P17
      000000F8H.2 SFRSYM    DATA     BIT       P72
      000000E8H.3 SFRSYM    DATA     BIT       P63
LX51 LINKER/LOCATER V4.41                                                             05/12/2022  17:30:48  PAGE 119


      000000C8H.4 SFRSYM    DATA     BIT       P54
      000000C0H.5 SFRSYM    DATA     BIT       P45
      000000B0H.6 SFRSYM    DATA     BIT       P36
      000000A0H.7 SFRSYM    DATA     BIT       P27
      000000F8H.3 SFRSYM    DATA     BIT       P73
      000000E8H.4 SFRSYM    DATA     BIT       P64
      000000C8H.5 SFRSYM    DATA     BIT       P55
      000000C0H.6 SFRSYM    DATA     BIT       P46
      000000B0H.7 SFRSYM    DATA     BIT       P37
      000000F8H.4 SFRSYM    DATA     BIT       P74
      000000E8H.5 SFRSYM    DATA     BIT       P65
      000000C8H.6 SFRSYM    DATA     BIT       P56
      000000C0H.7 SFRSYM    DATA     BIT       P47
      000000F8H.5 SFRSYM    DATA     BIT       P75
      000000E8H.6 SFRSYM    DATA     BIT       P66
      000000C8H.7 SFRSYM    DATA     BIT       P57
      000000F8H.6 SFRSYM    DATA     BIT       P76
      000000E8H.7 SFRSYM    DATA     BIT       P67
      000000F8H.7 SFRSYM    DATA     BIT       P77
      00000088H.1 SFRSYM    DATA     BIT       IE0
      00000088H.3 SFRSYM    DATA     BIT       IE1
      000000AFH   SFRSYM    DATA     BYTE      IE2
      000000F0H   SFRSYM    DATA     BYTE      B
      0000008EH   SFRSYM    DATA     BYTE      AUXR
      000000FCH   SFRSYM    DATA     BYTE      USBADR
      000000C7H   SFRSYM    DATA     BYTE      IAP_CONTR
      000000ECH   SFRSYM    DATA     BYTE      USBDAT
      000000DCH   SFRSYM    DATA     BYTE      USBCLK
      000000E0H   SFRSYM    DATA     BYTE      ACC
      000000A8H.1 SFRSYM    DATA     BIT       ET0
      000000A8H.3 SFRSYM    DATA     BIT       ET1
      00000088H.5 SFRSYM    DATA     BIT       TF0
      000000FFH   SFRSYM    DATA     BYTE      RSTCFG
      000000B5H   SFRSYM    DATA     BYTE      IP2
      00000088H.7 SFRSYM    DATA     BIT       TF1
      000000F4H   SFRSYM    DATA     BYTE      USBCON
      000000DFH   SFRSYM    DATA     BYTE      IP3
      00000098H.2 SFRSYM    DATA     BIT       RB8
      0000008CH   SFRSYM    DATA     BYTE      TH0
      000000A8H   SFRSYM    DATA     BIT       EX0
      0000008DH   SFRSYM    DATA     BYTE      TH1
      00000088H   SFRSYM    DATA     BIT       IT0
      000000D6H   SFRSYM    DATA     BYTE      T2H
      000000A8H.2 SFRSYM    DATA     BIT       EX1
      00000098H.3 SFRSYM    DATA     BIT       TB8
      00000088H.2 SFRSYM    DATA     BIT       IT1
      000000D4H   SFRSYM    DATA     BYTE      T3H
      000000D0H   SFRSYM    DATA     BIT       P
      000000D2H   SFRSYM    DATA     BYTE      T4H
      00000098H.7 SFRSYM    DATA     BIT       SM0
      0000008AH   SFRSYM    DATA     BYTE      TL0
      00000098H.6 SFRSYM    DATA     BIT       SM1
      0000008BH   SFRSYM    DATA     BYTE      TL1
      000000D7H   SFRSYM    DATA     BYTE      T2L
      00000098H.5 SFRSYM    DATA     BIT       SM2
      000000D5H   SFRSYM    DATA     BYTE      T3L
      000000D3H   SFRSYM    DATA     BYTE      T4L
      000000B8H.1 SFRSYM    DATA     BIT       PT0
      000000D0H.3 SFRSYM    DATA     BIT       RS0
      000000B8H.3 SFRSYM    DATA     BIT       PT1
      000000D0H.4 SFRSYM    DATA     BIT       RS1
      000000C2H   SFRSYM    DATA     BYTE      IAP_DATA
      00000088H.4 SFRSYM    DATA     BIT       TR0
      00000088H.6 SFRSYM    DATA     BIT       TR1
      000000C1H   SFRSYM    DATA     BYTE      WDT_CONTR
LX51 LINKER/LOCATER V4.41                                                             05/12/2022  17:30:48  PAGE 120


      000000B8H   SFRSYM    DATA     BIT       PX0
      000000B8H.2 SFRSYM    DATA     BIT       PX1
      0000009FH   SFRSYM    DATA     BYTE      IRTRIM
      00000083H   SFRSYM    DATA     BYTE      DPH
      000000D1H   SFRSYM    DATA     BYTE      T4T3M
      000000BEH   SFRSYM    DATA     BYTE      ADC_RESL
      00000082H   SFRSYM    DATA     BYTE      DPL
      000000CDH   SFRSYM    DATA     BYTE      SPSTAT
      000000B7H   SFRSYM    DATA     BYTE      IPH
      0000009BH   SFRSYM    DATA     BYTE      S2BUF
      000000ADH   SFRSYM    DATA     BYTE      S3BUF
      00000098H.4 SFRSYM    DATA     BIT       REN
      00000085H   SFRSYM    DATA     BYTE      S4BUF
      0000009AH   SFRSYM    DATA     BYTE      S2CON
      000000E3H   SFRSYM    DATA     BYTE      DPS
      000000ACH   SFRSYM    DATA     BYTE      S3CON
      00000084H   SFRSYM    DATA     BYTE      S4CON
      000000EFH   SFRSYM    DATA     BYTE      AUXINTIF
      000000B9H   SFRSYM    DATA     BYTE      SADEN
      000000A9H   SFRSYM    DATA     BYTE      SADDR
      000000C6H   SFRSYM    DATA     BYTE      IAP_TRIG
      000000D0H.5 SFRSYM    DATA     BIT       F0
      0000009DH   SFRSYM    DATA     BYTE      IRCBAND
      000000D0H   SFRSYM    DATA     BYTE      PSW
      000000CFH   SFRSYM    DATA     BYTE      SPDAT
      00000094H   SFRSYM    DATA     BYTE      P0M0

      01001608H   BLOCK     CODE     ---       LVL=0
      01001615H   BLOCK     CODE     NEAR LAB  LVL=1
      00000007H   SYMBOL    DATA     BYTE      res
      0200023DH   SYMBOL    XDATA    BYTE      dwon_count
      ---         BLOCKEND  ---      ---       LVL=1
      01001608H   LINE      CODE     ---       #22
      01001615H   LINE      CODE     ---       #26
      0100161AH   LINE      CODE     ---       #27
      0100161AH   LINE      CODE     ---       #28
      0100161DH   LINE      CODE     ---       #29
      01001622H   LINE      CODE     ---       #30
      01001622H   LINE      CODE     ---       #31
      01001627H   LINE      CODE     ---       #32
      01001627H   LINE      CODE     ---       #33
      0100162AH   LINE      CODE     ---       #34
      0100162CH   LINE      CODE     ---       #36
      01001630H   LINE      CODE     ---       #37
      01001630H   LINE      CODE     ---       #38
      0100163DH   LINE      CODE     ---       #39
      01001640H   LINE      CODE     ---       #40
      01001642H   LINE      CODE     ---       #42
      01001642H   LINE      CODE     ---       #43
      01001647H   LINE      CODE     ---       #44
      01001647H   LINE      CODE     ---       #45
      01001647H   LINE      CODE     ---       #46
      ---         BLOCKEND  ---      ---       LVL=0

      01001749H   BLOCK     CODE     ---       LVL=0
      01001749H   LINE      CODE     ---       #49
      0100174FH   LINE      CODE     ---       #51
      01001754H   LINE      CODE     ---       #52
      01001754H   LINE      CODE     ---       #53
      01001757H   LINE      CODE     ---       #54
      0100175CH   LINE      CODE     ---       #55
      0100175CH   LINE      CODE     ---       #56
      01001761H   LINE      CODE     ---       #57
      01001761H   LINE      CODE     ---       #58
      01001764H   LINE      CODE     ---       #61
LX51 LINKER/LOCATER V4.41                                                             05/12/2022  17:30:48  PAGE 121


      01001764H   LINE      CODE     ---       #62
      ---         BLOCKEND  ---      ---       LVL=0

      0100176BH   BLOCK     CODE     ---       LVL=0
      0100176BH   LINE      CODE     ---       #66
      01001771H   LINE      CODE     ---       #68
      01001776H   LINE      CODE     ---       #69
      01001776H   LINE      CODE     ---       #70
      01001779H   LINE      CODE     ---       #71
      0100177EH   LINE      CODE     ---       #72
      0100177EH   LINE      CODE     ---       #73
      01001783H   LINE      CODE     ---       #74
      01001783H   LINE      CODE     ---       #75
      01001786H   LINE      CODE     ---       #78
      01001786H   LINE      CODE     ---       #79
      ---         BLOCKEND  ---      ---       LVL=0

      0100178DH   BLOCK     CODE     ---       LVL=0
      0100178DH   LINE      CODE     ---       #83
      01001793H   LINE      CODE     ---       #85
      01001798H   LINE      CODE     ---       #86
      01001798H   LINE      CODE     ---       #87
      0100179BH   LINE      CODE     ---       #88
      010017A0H   LINE      CODE     ---       #89
      010017A0H   LINE      CODE     ---       #90
      010017A5H   LINE      CODE     ---       #91
      010017A5H   LINE      CODE     ---       #92
      010017A8H   LINE      CODE     ---       #95
      010017A8H   LINE      CODE     ---       #96
      ---         BLOCKEND  ---      ---       LVL=0

      01001822H   BLOCK     CODE     ---       LVL=0
      01001822H   LINE      CODE     ---       #100
      01001822H   LINE      CODE     ---       #103
      ---         BLOCKEND  ---      ---       LVL=0

      01001823H   BLOCK     CODE     ---       LVL=0
      01001823H   LINE      CODE     ---       #104
      01001823H   LINE      CODE     ---       #107
      ---         BLOCKEND  ---      ---       LVL=0

      01001808H   BLOCK     CODE     ---       LVL=0
      01001808H   LINE      CODE     ---       #108
      01001808H   LINE      CODE     ---       #110
      0100180BH   LINE      CODE     ---       #111
      ---         BLOCKEND  ---      ---       LVL=0

      0100180CH   BLOCK     CODE     ---       LVL=0
      0100180CH   LINE      CODE     ---       #112
      0100180CH   LINE      CODE     ---       #114
      0100180FH   LINE      CODE     ---       #115
      ---         BLOCKEND  ---      ---       LVL=0

      01001810H   BLOCK     CODE     ---       LVL=0
      01001810H   LINE      CODE     ---       #117
      01001810H   LINE      CODE     ---       #119
      01001813H   LINE      CODE     ---       #120
      ---         BLOCKEND  ---      ---       LVL=0

      01001824H   BLOCK     CODE     ---       LVL=0
      01001824H   LINE      CODE     ---       #122
      01001824H   LINE      CODE     ---       #125
      ---         BLOCKEND  ---      ---       LVL=0

      01001825H   BLOCK     CODE     ---       LVL=0
LX51 LINKER/LOCATER V4.41                                                             05/12/2022  17:30:48  PAGE 122


      01001825H   LINE      CODE     ---       #126
      01001825H   LINE      CODE     ---       #129
      ---         BLOCKEND  ---      ---       LVL=0

      01001814H   BLOCK     CODE     ---       LVL=0
      01001814H   LINE      CODE     ---       #130
      01001814H   LINE      CODE     ---       #132
      01001817H   LINE      CODE     ---       #134
      ---         BLOCKEND  ---      ---       LVL=0

      01001818H   BLOCK     CODE     ---       LVL=0
      01001818H   LINE      CODE     ---       #135
      01001818H   LINE      CODE     ---       #137
      0100181BH   LINE      CODE     ---       #139
      ---         BLOCKEND  ---      ---       LVL=0

      010016DAH   BLOCK     CODE     ---       LVL=0
      010016DAH   LINE      CODE     ---       #141
      010016F7H   LINE      CODE     ---       #143
      010016FAH   LINE      CODE     ---       #144
      010016FDH   LINE      CODE     ---       #146
      ---         BLOCKEND  ---      ---       LVL=0

      ---         MODULE    ---      ---       MAIN
      010017AFH   PUBLIC    CODE     ---       main
      00000093H   SFRSYM    DATA     BYTE      P0M1
      00000092H   SFRSYM    DATA     BYTE      P1M0
      00000096H   SFRSYM    DATA     BYTE      P2M0
      00000091H   SFRSYM    DATA     BYTE      P1M1
      00000080H   SFRSYM    DATA     BYTE      P0
      000000B2H   SFRSYM    DATA     BYTE      P3M0
      00000095H   SFRSYM    DATA     BYTE      P2M1
      00000090H   SFRSYM    DATA     BYTE      P1
      000000B4H   SFRSYM    DATA     BYTE      P4M0
      000000B1H   SFRSYM    DATA     BYTE      P3M1
      000000A0H   SFRSYM    DATA     BYTE      P2
      000000CAH   SFRSYM    DATA     BYTE      P5M0
      000000B3H   SFRSYM    DATA     BYTE      P4M1
      000000B0H   SFRSYM    DATA     BYTE      P3
      000000ABH   SFRSYM    DATA     BYTE      WKTCH
      000000D0H.6 SFRSYM    DATA     BIT       AC
      000000CCH   SFRSYM    DATA     BYTE      P6M0
      000000C9H   SFRSYM    DATA     BYTE      P5M1
      000000C0H   SFRSYM    DATA     BYTE      P4
      000000E2H   SFRSYM    DATA     BYTE      P7M0
      000000CBH   SFRSYM    DATA     BYTE      P6M1
      000000C8H   SFRSYM    DATA     BYTE      P5
      000000E8H   SFRSYM    DATA     BYTE      P6
      000000E1H   SFRSYM    DATA     BYTE      P7M1
      000000A8H.7 SFRSYM    DATA     BIT       EA
      000000F8H   SFRSYM    DATA     BYTE      P7
      000000AAH   SFRSYM    DATA     BYTE      WKTCL
      000000CEH   SFRSYM    DATA     BYTE      SPCTL
      000000A2H   SFRSYM    DATA     BYTE      P_SW1
      000000BAH   SFRSYM    DATA     BYTE      P_SW2
      000000E5H   SFRSYM    DATA     BYTE      DPH1
      000000A8H.5 SFRSYM    DATA     BIT       EADC
      000000A8H   SFRSYM    DATA     BYTE      IE
      000000C5H   SFRSYM    DATA     BYTE      IAP_CMD
      000000E4H   SFRSYM    DATA     BYTE      DPL1
      000000BDH   SFRSYM    DATA     BYTE      ADC_RES
      000000B6H   SFRSYM    DATA     BYTE      IP2H
      000000EEH   SFRSYM    DATA     BYTE      IP3H
      000000AEH   SFRSYM    DATA     BYTE      TA
      0000008FH   SFRSYM    DATA     BYTE      INTCLKO
LX51 LINKER/LOCATER V4.41                                                             05/12/2022  17:30:48  PAGE 123


      000000A8H.4 SFRSYM    DATA     BIT       ES
      000000B8H.5 SFRSYM    DATA     BIT       PADC
      000000B8H   SFRSYM    DATA     BYTE      IP
      000000DEH   SFRSYM    DATA     BYTE      ADCCFG
      00000098H   SFRSYM    DATA     BIT       RI
      000000D0H.7 SFRSYM    DATA     BIT       CY
      00000098H.1 SFRSYM    DATA     BIT       TI
      000000C3H   SFRSYM    DATA     BYTE      IAP_ADDRH
      000000B8H.4 SFRSYM    DATA     BIT       PS
      00000081H   SFRSYM    DATA     BYTE      SP
      000000C4H   SFRSYM    DATA     BYTE      IAP_ADDRL
      000000D0H.2 SFRSYM    DATA     BIT       OV
      000000B8H.7 SFRSYM    DATA     BIT       PPCA
      0000009EH   SFRSYM    DATA     BYTE      LIRTRIM
      000000E6H   SFRSYM    DATA     BYTE      CMPCR1
      000000E7H   SFRSYM    DATA     BYTE      CMPCR2
      000000A8H.6 SFRSYM    DATA     BIT       ELVD
      00000080H   SFRSYM    DATA     BIT       P00
      000000BCH   SFRSYM    DATA     BYTE      ADC_CONTR
      00000099H   SFRSYM    DATA     BYTE      SBUF
      00000090H   SFRSYM    DATA     BIT       P10
      00000087H   SFRSYM    DATA     BYTE      PCON
      00000080H.1 SFRSYM    DATA     BIT       P01
      000000A0H   SFRSYM    DATA     BIT       P20
      00000090H.1 SFRSYM    DATA     BIT       P11
      00000080H.2 SFRSYM    DATA     BIT       P02
      000000F5H   SFRSYM    DATA     BYTE      IAP_TPS
      000000B0H   SFRSYM    DATA     BIT       P30
      000000A0H.1 SFRSYM    DATA     BIT       P21
      00000090H.2 SFRSYM    DATA     BIT       P12
      00000080H.3 SFRSYM    DATA     BIT       P03
      000000C0H   SFRSYM    DATA     BIT       P40
      000000B0H.1 SFRSYM    DATA     BIT       P31
      000000A0H.2 SFRSYM    DATA     BIT       P22
      00000098H   SFRSYM    DATA     BYTE      SCON
      00000090H.3 SFRSYM    DATA     BIT       P13
      00000080H.4 SFRSYM    DATA     BIT       P04
      000000C8H   SFRSYM    DATA     BIT       P50
      000000C0H.1 SFRSYM    DATA     BIT       P41
      000000B0H.2 SFRSYM    DATA     BIT       P32
      000000A0H.3 SFRSYM    DATA     BIT       P23
      00000090H.4 SFRSYM    DATA     BIT       P14
      00000089H   SFRSYM    DATA     BYTE      TMOD
      00000088H   SFRSYM    DATA     BYTE      TCON
      00000080H.5 SFRSYM    DATA     BIT       P05
      000000E8H   SFRSYM    DATA     BIT       P60
      000000C8H.1 SFRSYM    DATA     BIT       P51
      000000C0H.2 SFRSYM    DATA     BIT       P42
      000000B0H.3 SFRSYM    DATA     BIT       P33
      000000A0H.4 SFRSYM    DATA     BIT       P24
      00000090H.5 SFRSYM    DATA     BIT       P15
      00000080H.6 SFRSYM    DATA     BIT       P06
      000000F8H   SFRSYM    DATA     BIT       P70
      000000E8H.1 SFRSYM    DATA     BIT       P61
      000000C8H.2 SFRSYM    DATA     BIT       P52
      000000C0H.3 SFRSYM    DATA     BIT       P43
      000000B8H.6 SFRSYM    DATA     BIT       PLVD
      000000B0H.4 SFRSYM    DATA     BIT       P34
      000000A0H.5 SFRSYM    DATA     BIT       P25
      00000090H.6 SFRSYM    DATA     BIT       P16
      00000080H.7 SFRSYM    DATA     BIT       P07
      000000F8H.1 SFRSYM    DATA     BIT       P71
      000000E8H.2 SFRSYM    DATA     BIT       P62
      000000C8H.3 SFRSYM    DATA     BIT       P53
      000000C0H.4 SFRSYM    DATA     BIT       P44
LX51 LINKER/LOCATER V4.41                                                             05/12/2022  17:30:48  PAGE 124


      000000B0H.5 SFRSYM    DATA     BIT       P35
      000000A0H.6 SFRSYM    DATA     BIT       P26
      00000090H.7 SFRSYM    DATA     BIT       P17
      000000F8H.2 SFRSYM    DATA     BIT       P72
      000000E8H.3 SFRSYM    DATA     BIT       P63
      000000C8H.4 SFRSYM    DATA     BIT       P54
      000000C0H.5 SFRSYM    DATA     BIT       P45
      000000B0H.6 SFRSYM    DATA     BIT       P36
      000000A0H.7 SFRSYM    DATA     BIT       P27
      000000F8H.3 SFRSYM    DATA     BIT       P73
      000000E8H.4 SFRSYM    DATA     BIT       P64
      000000C8H.5 SFRSYM    DATA     BIT       P55
      000000C0H.6 SFRSYM    DATA     BIT       P46
      000000B0H.7 SFRSYM    DATA     BIT       P37
      000000F8H.4 SFRSYM    DATA     BIT       P74
      000000E8H.5 SFRSYM    DATA     BIT       P65
      000000C8H.6 SFRSYM    DATA     BIT       P56
      000000C0H.7 SFRSYM    DATA     BIT       P47
      000000F8H.5 SFRSYM    DATA     BIT       P75
      000000E8H.6 SFRSYM    DATA     BIT       P66
      000000C8H.7 SFRSYM    DATA     BIT       P57
      000000F8H.6 SFRSYM    DATA     BIT       P76
      000000E8H.7 SFRSYM    DATA     BIT       P67
      000000F8H.7 SFRSYM    DATA     BIT       P77
      00000088H.1 SFRSYM    DATA     BIT       IE0
      00000088H.3 SFRSYM    DATA     BIT       IE1
      000000AFH   SFRSYM    DATA     BYTE      IE2
      000000F0H   SFRSYM    DATA     BYTE      B
      0000008EH   SFRSYM    DATA     BYTE      AUXR
      000000FCH   SFRSYM    DATA     BYTE      USBADR
      000000C7H   SFRSYM    DATA     BYTE      IAP_CONTR
      000000ECH   SFRSYM    DATA     BYTE      USBDAT
      000000DCH   SFRSYM    DATA     BYTE      USBCLK
      000000E0H   SFRSYM    DATA     BYTE      ACC
      000000A8H.1 SFRSYM    DATA     BIT       ET0
      000000A8H.3 SFRSYM    DATA     BIT       ET1
      00000088H.5 SFRSYM    DATA     BIT       TF0
      000000FFH   SFRSYM    DATA     BYTE      RSTCFG
      000000B5H   SFRSYM    DATA     BYTE      IP2
      00000088H.7 SFRSYM    DATA     BIT       TF1
      000000F4H   SFRSYM    DATA     BYTE      USBCON
      000000DFH   SFRSYM    DATA     BYTE      IP3
      00000098H.2 SFRSYM    DATA     BIT       RB8
      0000008CH   SFRSYM    DATA     BYTE      TH0
      000000A8H   SFRSYM    DATA     BIT       EX0
      0000008DH   SFRSYM    DATA     BYTE      TH1
      00000088H   SFRSYM    DATA     BIT       IT0
      000000D6H   SFRSYM    DATA     BYTE      T2H
      000000A8H.2 SFRSYM    DATA     BIT       EX1
      00000098H.3 SFRSYM    DATA     BIT       TB8
      00000088H.2 SFRSYM    DATA     BIT       IT1
      000000D4H   SFRSYM    DATA     BYTE      T3H
      000000D0H   SFRSYM    DATA     BIT       P
      000000D2H   SFRSYM    DATA     BYTE      T4H
      00000098H.7 SFRSYM    DATA     BIT       SM0
      0000008AH   SFRSYM    DATA     BYTE      TL0
      00000098H.6 SFRSYM    DATA     BIT       SM1
      0000008BH   SFRSYM    DATA     BYTE      TL1
      000000D7H   SFRSYM    DATA     BYTE      T2L
      00000098H.5 SFRSYM    DATA     BIT       SM2
      000000D5H   SFRSYM    DATA     BYTE      T3L
      000000D3H   SFRSYM    DATA     BYTE      T4L
      000000B8H.1 SFRSYM    DATA     BIT       PT0
      000000D0H.3 SFRSYM    DATA     BIT       RS0
      000000B8H.3 SFRSYM    DATA     BIT       PT1
LX51 LINKER/LOCATER V4.41                                                             05/12/2022  17:30:48  PAGE 125


      000000D0H.4 SFRSYM    DATA     BIT       RS1
      000000C2H   SFRSYM    DATA     BYTE      IAP_DATA
      00000088H.4 SFRSYM    DATA     BIT       TR0
      00000088H.6 SFRSYM    DATA     BIT       TR1
      000000C1H   SFRSYM    DATA     BYTE      WDT_CONTR
      000000B8H   SFRSYM    DATA     BIT       PX0
      000000B8H.2 SFRSYM    DATA     BIT       PX1
      0000009FH   SFRSYM    DATA     BYTE      IRTRIM
      00000083H   SFRSYM    DATA     BYTE      DPH
      000000D1H   SFRSYM    DATA     BYTE      T4T3M
      000000BEH   SFRSYM    DATA     BYTE      ADC_RESL
      00000082H   SFRSYM    DATA     BYTE      DPL
      000000CDH   SFRSYM    DATA     BYTE      SPSTAT
      000000B7H   SFRSYM    DATA     BYTE      IPH
      0000009BH   SFRSYM    DATA     BYTE      S2BUF
      000000ADH   SFRSYM    DATA     BYTE      S3BUF
      00000098H.4 SFRSYM    DATA     BIT       REN
      00000085H   SFRSYM    DATA     BYTE      S4BUF
      0000009AH   SFRSYM    DATA     BYTE      S2CON
      000000E3H   SFRSYM    DATA     BYTE      DPS
      000000ACH   SFRSYM    DATA     BYTE      S3CON
      00000084H   SFRSYM    DATA     BYTE      S4CON
      000000EFH   SFRSYM    DATA     BYTE      AUXINTIF
      000000B9H   SFRSYM    DATA     BYTE      SADEN
      000000A9H   SFRSYM    DATA     BYTE      SADDR
      000000C6H   SFRSYM    DATA     BYTE      IAP_TRIG
      000000D0H.5 SFRSYM    DATA     BIT       F0
      0000009DH   SFRSYM    DATA     BYTE      IRCBAND
      000000D0H   SFRSYM    DATA     BYTE      PSW
      000000CFH   SFRSYM    DATA     BYTE      SPDAT
      00000094H   SFRSYM    DATA     BYTE      P0M0

      010017AFH   BLOCK     CODE     ---       LVL=0
      010017AFH   LINE      CODE     ---       #32
      010017AFH   LINE      CODE     ---       #33
      010017AFH   LINE      CODE     ---       #34
      010017B2H   LINE      CODE     ---       #35
      010017B5H   LINE      CODE     ---       #38
      010017B8H   LINE      CODE     ---       #39
      010017BAH   LINE      CODE     ---       #40
      010017C1H   LINE      CODE     ---       #41
      010017C3H   LINE      CODE     ---       #43
      010017C6H   LINE      CODE     ---       #44
      010017C6H   LINE      CODE     ---       #45
      010017C6H   LINE      CODE     ---       #46
      010017CDH   LINE      CODE     ---       #47
      010017CFH   LINE      CODE     ---       #48
      ---         BLOCKEND  ---      ---       LVL=0

      ---         MODULE    ---      ---       ?C?FPADD
      01000807H   PUBLIC    CODE     ---       ?C?FPADD
      01000803H   PUBLIC    CODE     ---       ?C?FPSUB

      ---         MODULE    ---      ---       ?C?FPMUL
      010008F8H   PUBLIC    CODE     ---       ?C?FPMUL

      ---         MODULE    ---      ---       ?C?FPDIV
      01000A01H   PUBLIC    CODE     ---       ?C?FPDIV

      ---         MODULE    ---      ---       ?C?FPCMP
      01000AA0H   PUBLIC    CODE     ---       ?C?FPCMP
      01000A9EH   PUBLIC    CODE     ---       ?C?FPCMP3

      ---         MODULE    ---      ---       ?C?FPNEG
      01000B0BH   PUBLIC    CODE     ---       ?C?FPNEG
LX51 LINKER/LOCATER V4.41                                                             05/12/2022  17:30:48  PAGE 126



      ---         MODULE    ---      ---       ?C?FCAST
      01000B26H   PUBLIC    CODE     ---       ?C?FCASTC
      01000B21H   PUBLIC    CODE     ---       ?C?FCASTI
      01000B1CH   PUBLIC    CODE     ---       ?C?FCASTL

      ---         MODULE    ---      ---       ?C?CASTF
      01000B5AH   PUBLIC    CODE     ---       ?C?CASTF

      ---         MODULE    ---      ---       PRINTF

      ---         MODULE    ---      ---       ?C?FPGETOPN
      01000B91H   PUBLIC    CODE     ---       ?C?FPGETOPN2
      01000BC6H   PUBLIC    CODE     ---       ?C?FPNANRESULT
      01000BD0H   PUBLIC    CODE     ---       ?C?FPOVERFLOW
      01000BA8H   PUBLIC    CODE     ---       ?C?FPRESULT
      01000BBCH   PUBLIC    CODE     ---       ?C?FPRESULT2
      01000BCDH   PUBLIC    CODE     ---       ?C?FPUNDERFLOW

      ---         MODULE    ---      ---       ?C?FPROUND
      01000BDBH   PUBLIC    CODE     ---       ?C?FPROUND

      ---         MODULE    ---      ---       ?C?FPCONVERT
      01000C18H   PUBLIC    CODE     ---       ?C?FPCONVERT

      ---         MODULE    ---      ---       ?C?FTNPWR
      01000D4DH   PUBLIC    CODE     ---       ?C?FTNPWR

      ---         MODULE    ---      ---       ?C_STARTUP
      01000000H   PUBLIC    CODE     ---       ?C_STARTUP

      ---         MODULE    ---      ---       ?C?COPY
      01000E5DH   PUBLIC    CODE     ---       ?C?COPY

      ---         MODULE    ---      ---       ?C?SCDIV
      01000E83H   PUBLIC    CODE     ---       ?C?SCDIV

      ---         MODULE    ---      ---       ?C?CLDPTR
      01000EA5H   PUBLIC    CODE     ---       ?C?CLDPTR

      ---         MODULE    ---      ---       ?C?CLDOPTR
      01000EBEH   PUBLIC    CODE     ---       ?C?CLDOPTR

      ---         MODULE    ---      ---       ?C?CSTPTR
      01000EEBH   PUBLIC    CODE     ---       ?C?CSTPTR

      ---         MODULE    ---      ---       ?C?CSTOPTR
      01000EFDH   PUBLIC    CODE     ---       ?C?CSTOPTR

      ---         MODULE    ---      ---       ?C?IMUL
      01000F1FH   PUBLIC    CODE     ---       ?C?IMUL

      ---         MODULE    ---      ---       ?C?UIDIV
      01000F31H   PUBLIC    CODE     ---       ?C?UIDIV

      ---         MODULE    ---      ---       ?C?SIDIV
      01000F86H   PUBLIC    CODE     ---       ?C?SIDIV

      ---         MODULE    ---      ---       ?C?IILDX
      01000FBCH   PUBLIC    CODE     ---       ?C?IILDX

      ---         MODULE    ---      ---       ?C?ILDIX
      01000FD2H   PUBLIC    CODE     ---       ?C?ILDIX

      ---         MODULE    ---      ---       ?C?ILDOPTR
LX51 LINKER/LOCATER V4.41                                                             05/12/2022  17:30:48  PAGE 127


      01000FE8H   PUBLIC    CODE     ---       ?C?ILDOPTR

      ---         MODULE    ---      ---       ?C?LMUL
      01001020H   PUBLIC    CODE     ---       ?C?LMUL

      ---         MODULE    ---      ---       ?C?ULDIV
      010010ABH   PUBLIC    CODE     ---       ?C?ULDIV

      ---         MODULE    ---      ---       ?C?SLDIV
      01001696H   PUBLIC    CODE     ---       ?C?SLDIV

      ---         MODULE    ---      ---       ?C?LNEG
      0100113DH   PUBLIC    CODE     ---       ?C?LNEG

      ---         MODULE    ---      ---       ?C?SLCMP
      0100114BH   PUBLIC    CODE     ---       ?C?SLCMP

      ---         MODULE    ---      ---       ?C?ULCMP
      01001161H   PUBLIC    CODE     ---       ?C?ULCMP

      ---         MODULE    ---      ---       ?C?ULSHR
      01001172H   PUBLIC    CODE     ---       ?C?ULSHR

      ---         MODULE    ---      ---       ?C?LLDPTR
      01001185H   PUBLIC    CODE     ---       ?C?LLDPTR

      ---         MODULE    ---      ---       ?C?LLDIXDATA
      010011AEH   PUBLIC    CODE     ---       ?C?LLDIXDATA
      010011A5H   PUBLIC    CODE     ---       ?C?LLDIXDATA1
      010011A7H   PUBLIC    CODE     ---       ?C?LLDIXDATA8

      ---         MODULE    ---      ---       ?C?LSTXDATA
      010011DAH   PUBLIC    CODE     ---       ?C?LSTXDATA

      ---         MODULE    ---      ---       ?C?LSTKXDATA
      010011E6H   PUBLIC    CODE     ---       ?C?LSTKXDATA

      ---         MODULE    ---      ---       ?C?OFFX256
      01001217H   PUBLIC    CODE     ---       ?C?OFFX256

      ---         MODULE    ---      ---       ?C?PLDIXDATA
      01001228H   PUBLIC    CODE     ---       ?C?PLDIXDATA

      ---         MODULE    ---      ---       ?C?PSTXDATA
      0100123FH   PUBLIC    CODE     ---       ?C?PSTXDATA

      ---         MODULE    ---      ---       ?C?PLDPTR
      01001248H   PUBLIC    CODE     ---       ?C?PLDPTR

      ---         MODULE    ---      ---       ?C?CCASE
      01001268H   PUBLIC    CODE     ---       ?C?CCASE

      ---         MODULE    ---      ---       STRNCMP

      ---         MODULE    ---      ---       STRLEN

      ---         MODULE    ---      ---       ?C_INIT
      010014D7H   PUBLIC    CODE     ---       ?C_START

      ---         MODULE    ---      ---       ?C?LLDIDATA
      0100128EH   PUBLIC    CODE     ---       ?C?LLDIDATA

      ---         MODULE    ---      ---       ?C?LLDXDATA
      0100129AH   PUBLIC    CODE     ---       ?C?LLDXDATA

LX51 LINKER/LOCATER V4.41                                                             05/12/2022  17:30:48  PAGE 128


      ---         MODULE    ---      ---       ?C?LLDPDATA
      010012A6H   PUBLIC    CODE     ---       ?C?LLDPDATA

      ---         MODULE    ---      ---       ?C?LLDCODE
      010012B2H   PUBLIC    CODE     ---       ?C?LLDCODE

      ---         MODULE    ---      ---       ?C?PLDIDATA
      010012C2H   PUBLIC    CODE     ---       ?C?PLDIDATA

      ---         MODULE    ---      ---       ?C?PLDXDATA
      010012CBH   PUBLIC    CODE     ---       ?C?PLDXDATA

      ---         MODULE    ---      ---       ?C?PLDPDATA
      010012D4H   PUBLIC    CODE     ---       ?C?PLDPDATA

      ---         MODULE    ---      ---       ?C?PLDCODE
      010012DDH   PUBLIC    CODE     ---       ?C?PLDCODE

******************************************************************************
* RESTRICTED VERSION WITH 0800H BYTE CODE SIZE LIMIT; USED: 863AH BYTE (1677%) *
******************************************************************************

Program Size: data=9.0 xdata=574 const=0 code=4179
*** ERROR L250: CODE SIZE LIMIT IN RESTRICTED VERSION EXCEEDED
    LIMIT:   0800H BYTES
